VERSION A06
PSEUDO CODE ASSEMBLER FOR COBOL85   FILE=Z8HP.:Z8A6TSI       TUE AUG 26 '97 07:51:54.60  PAGE    1
      ESN       ISN       TEXT

        1    000000 BEGIN_PROGRAM Z8HP$PC_PEPD_INIT
        2    000000     PSI1 1
        3    000000 {*M* Z8HP - System independent pseudocode module.
        4    000000  *P*
        5    000000      NAME: Z8HP
        6    000000      PURPOSE:
        7    000000           Pseudocode module that drives generation of system
        8    000000           independent code bursts.
        9    000000      DESCRIPTION:
       10    000000           This module drives code generation of system independent
       11    000000           code bursts.  It must be assembled by the PseudoCode
       12    000000           Assembler, whose output is  compiled by PL6
       13    000000           to create an object unit. See Z8PD$PCA_DOCUMENT
       14    000000           for information on how the PCA works.  Each ETT or ILL
       15    000000           item that can generate system independent code has
       16    000000           a START directive in this module, with a label that
       17    000000           corresponds to the item's name.  Following the start
       18    000000           directive is the pseudo code for the item.
       19    000000      REFERENCE:
       20    000000           Z8PD$PCA_DOCUMENT
       21    000000 }
       22    000000         PAGE

PSEUDO CODE ASSEMBLER FOR COBOL85   FILE=Z8HP.:Z8A6TSI       TUE AUG 26 '97 07:51:54.60  PAGE    2
      ESN       ISN       TEXT

       23    000000 ENTER_PL6
       24    000000 %EQU PHASE = 4;
       25    000000 %INCLUDE Z8A_DEFC;
       26    000000 %INCLUDE Z8A_SUPP_MAC;
       27    000000 %INCLUDE Z8A_ILL;
       28    000000 %INCLUDE Z8A_ETT;
       29    000000 %INCLUDE Z8A_COMCOM;
       30    000000 %INCLUDE Z8A_TYPES;
       31    000000 %INCLUDE Z8H_PCOM;
       32    000000
       33    000000 %SET INITIALIZE = '1'B;
       34    000000 %INCLUDE Z8H_DEP;
       35    000000 %SET INITIALIZE = '0'B;
       36    000000
       37    000000 %INCLUDE Z8H_RAT;
       38    000000 %INCLUDE Z8H_TEMP;
       39    000000 %INCLUDE Z8H_DIRECT;
       40    000000 %INCLUDE Z8A_LIBRARY;
       41    000000 ENTER_PCA
       42    000000 TRIAD START    PEPD
       43    000000        REF_                    {MOVE CONSTANT    ITEM UP TO .REF. GUY}
       44    000002        QUIT
       45    000003        PAGE

PSEUDO CODE ASSEMBLER FOR COBOL85   FILE=Z8HP.:Z8A6TSI       TUE AUG 26 '97 07:51:54.60  PAGE    3
      ESN       ISN       TEXT

       46    000003 EVAL   START   PEPD
       47    000003
       48    000003        WALK    LOP
       49    000005
       50    000005        CASE                          {Transfer reference info up }
       51    000007                                      {to EVAL item               }
       52    000007        QUIT
       53    000010        PAGE

PSEUDO CODE ASSEMBLER FOR COBOL85   FILE=Z8HP.:Z8A6TSI       TUE AUG 26 '97 07:51:54.60  PAGE    4
      ESN       ISN       TEXT

       54    000010 ADI   START    PEPD                  {LOP + ROP}
       55    000010        WALK2                   {WALK  EXP FIRST, THEN REFS}
       56    000012
       57    000012 $ADI00 NULL
       58    000012        DSTATE  TYI17,LOPROP,XABS
       59    000014        JMPDV   XABS,16
       60    000016        JMP     $ADIAA          {OPTIMIZED ALIAS}
       61    000017        JMP     $ADIAQ          {LOP=ARA,ROP=ARQ}
       62    000020        JMP     $ADIAX          {LOP=ARA,ROP=XRn}
       63    000021        JMP     $ADIAS          {LOP=ARA,ROP=ST}
       64    000022        JMP     $ADIQA          {LOP=ARQ,ROP=ARA}
       65    000023        JMP     $ADIQQ          {OPTIMIZED ALIAS}
       66    000024        JMP     $ADIQX          {LOP=ARQ,ROP=XRn}
       67    000025        JMP     $ADIQS          {LOP=ARQ,ROP=ST}
       68    000026        JMP     $ADIXA          {LOP=XRn,ROP=ARA}
       69    000027        JMP     $ADIXQ          {LOP=XRn,ROP=ARQ}
       70    000030        JMP     $ADIXX          {LOP=XRn,ROP=XRn}
       71    000031        JMP     $ADIXS          {LOP=XRn,ROP=ST}
       72    000032        JMP     $ADISA          {LOP=ST ,ROP=ARA}
       73    000033        JMP     $ADISQ          {LOP=ST ,ROP=ARQ}
       74    000034        JMP     $ADISX          {LOP=ST ,ROP=XRn}
       75    000035        JMP     $ADISS          {LOP=ST ,ROP=ST}
       76    000036
       77    000036 $ADICC NULL
       78    000036
       79    000036        DECCNT  LOP
       80    000040        DECCNT  ROP
       81    000042        QUIT
       82    000043
       83    000043 $ADIAA NULL
       84    000043        DECCNT  LOP
       85    000045        STORE   ROP
       86    000047        ASSIGN  AR(A),FREE

PSEUDO CODE ASSEMBLER FOR COBOL85   FILE=Z8HP.:Z8A6TSI       TUE AUG 26 '97 07:51:54.60  PAGE    5
      ESN       ISN       TEXT

       87    000051        GENI    ADA,ROP
       88    000053        ASSIGN  AR(A),USED
       89    000055        QUIT
       90    000056
       91    000056 $ADIAQ NULL
       92    000056        STORE   ROP             {STORE ROP IN TEMP}
       93    000060        JMP     $ADIAS          {NEW STATE: LOP=ARA,ROP=ST}
       94    000061
       95    000061 $ADIAX NULL
       96    000061        GOSUB   R_TO_Q          {MOVE ROP'S XR TO ARQ}
       97    000062        JMP     $ADI00
       98    000063
       99    000063 $ADIAS NULL
      100    000063        DECCNT  LOP             {IMPLICIT REFERENCE TO LOP}
      101    000065        ASSIGN  AR(A),FREE      {GET THE A REGISTER.}
      102    000067        GENI    ADA,ROP         {GENERATE FROM THE ROP}
      103    000071        JMP     $ADI_A          {ASSIGN AR(A) AND QUIT}
      104    000072
      105    000072 $ADIQA NULL
      106    000072        STORE   LOP             {STORE LOP IN TEMP}
      107    000074        JMP     $ADISA          {NEW STATE: LOP=ST ,ROP=ARA}
      108    000075
      109    000075 $ADIQQ NULL
      110    000075        DECCNT  LOP
      111    000077        STORE   ROP
      112    000101        ASSIGN  AR(Q),FREE
      113    000103        GENI    ADQ,ROP
      114    000105        ASSIGN  AR(Q),USED
      115    000107        QUIT
      116    000110
      117    000110 $ADIQX NULL
      118    000110        GOSUB   R_TO_A          {MOVE ROP'S XR TO ARA}
      119    000111        JMP     $ADI00
      120    000112

PSEUDO CODE ASSEMBLER FOR COBOL85   FILE=Z8HP.:Z8A6TSI       TUE AUG 26 '97 07:51:54.60  PAGE    6
      ESN       ISN       TEXT

      121    000112 $ADIQS NULL
      122    000112        DECCNT  LOP             {IMPLICIT REFERENCE TO LOP}
      123    000114        ASSIGN  AR(Q),FREE      {FREE AR(Q)}
      124    000116        GENI    ADQ,ROP         {ADD THE ROP}
      125    000120        JMP     $ADI_Q          {ASSIGN AR(Q) AND QUIT}
      126    000121
      127    000121 $ADIXA NULL
      128    000121        GOSUB   L_TO_Q          {MOVE LOP'S XR INTO ARQ}
      129    000122        JMP     $ADI00
      130    000123
      131    000123 $ADIXQ NULL
      132    000123        GOSUB   L_TO_A          {MOVE LOP'S XR INTO ARA}
      133    000124        JMP     $ADI00
      134    000125
      135    000125 $ADIXX NULL
      136    000125        GOSUB   L_TOAR          {MOVE LOP'S XR INTO AN ARITHMETIC REGISTER}
      137    000126        JMP     $ADI00          {NEW STATE: DETERMINE IT}
      138    000127
      139    000127 $ADIXS NULL
      140    000127        GOSUB   L_TOAR          {MOVE LOP'S INDEX REG TO AN AR}
      141    000130        JMP     $ADI00          {NEW STATE: DETERMINE IT}
      142    000131
      143    000131 $ADISA NULL
      144    000131        DECCNT  ROP             {IMPLICIT REFERENCE TO ROP}
      145    000133        ASSIGN  AR(A),FREE      {GET AR(A) READY FOR USE}
      146    000135        GENI    ADA,LOP         {ADD LOP}
      147    000137        JMP     $ADI_A          {ASSIGN AR(A) AND QUIT}
      148    000140
      149    000140 $ADISQ NULL
      150    000140        DECCNT  ROP             {IMPLICIT REFERENCE OF ROP}
      151    000142        ASSIGN  AR(Q),FREE      {FREE AR(Q)}
      152    000144        GENI    ADQ,LOP         {ADD LOP}
      153    000146        JMP     $ADI_Q
      154    000147

PSEUDO CODE ASSEMBLER FOR COBOL85   FILE=Z8HP.:Z8A6TSI       TUE AUG 26 '97 07:51:54.60  PAGE    7
      ESN       ISN       TEXT

      155    000147 $ADISX NULL
      156    000147        GOSUB   R_TOAR          {MOVE LOP'S XR INTO AN AR}
      157    000150        JMP     $ADI00          {NEW STATE: DETERMINE IT}
      158    000151
      159    000151 $ADISS NULL
      160    000151        FAVOR   LOP,AR          {TELL REGISTER MANAGEMENT ABOUT LOP}
      161    000153        ASSIGN  AR,FREE         {PICK AN AR, HOPEFULLY THE CHEAPEST}
      162    000155        MAPT    AR,OPMOD,2      {MAP CHOSEN AR ONTO OPCODE}
      163    000157        GENI    LDA,LOP         {GENI LDA OR LDQ}
      164    000161        GENI    ADA,ROP
      165    000163        ASSIGN  AR,USED         {ASSIGN USED WHICHEVER WE CHOSE}
      166    000165        QUIT
      167    000166
      168    000166 $ADI_A NULL
      169    000166        ASSIGN  AR(A),USED      {ASSIGN AR(A) TO A USED STATE}
      170    000170        QUIT
      171    000171
      172    000171 $ADI_Q NULL
      173    000171        ASSIGN  AR(Q),USED      {ASSIGN AR(Q) TO A USED STATE}
      174    000173        QUIT
      175    000174        PAGE

PSEUDO CODE ASSEMBLER FOR COBOL85   FILE=Z8HP.:Z8A6TSI       TUE AUG 26 '97 07:51:54.60  PAGE    8
      ESN       ISN       TEXT

      176    000174 SBI   START    PEPD                  {LOP - ROP}
      177    000174        WALK2                   {WALK  EXP FIRST, THEN REFS}
      178    000176
      179    000176 $SBI00 NULL
      180    000176        DSTATE  TYI17,LOPROP,XABS
      181    000200        JMPDV   XABS,16
      182    000202        JMP     $SBIAA          {OPTIMIZED ALIAS}
      183    000203        JMP     $SBIAQ          {LOP=ARA,ROP=ARQ}
      184    000204        JMP     $SBIAX          {LOP=ARA,ROP=XRn}
      185    000205        JMP     $SBIAS          {LOP=ARA,ROP=ST}
      186    000206        JMP     $SBIQA          {LOP=ARQ,ROP=ARA}
      187    000207        JMP     $SBIQQ          {OPTIMIZED ALIAS}
      188    000210        JMP     $SBIQX          {LOP=ARQ,ROP=XRn}
      189    000211        JMP     $SBIQS          {LOP=ARQ,ROP=ST}
      190    000212        JMP     $SBIXA          {LOP=XRn,ROP=ARA}
      191    000213        JMP     $SBIXQ          {LOP=XRn,ROP=ARQ}
      192    000214        JMP     $SBIXX          {LOP=XRn,ROP=XRn}
      193    000215        JMP     $SBIXS          {LOP=XRn,ROP=ST}
      194    000216        JMP     $SBISA          {LOP=ST ,ROP=ARA}
      195    000217        JMP     $SBISQ          {LOP=ST ,ROP=ARQ}
      196    000220        JMP     $SBISX          {LOP=ST ,ROP=XRn}
      197    000221        JMP     $SBISS          {LOP=ST ,ROP=ST}
      198    000222
      199    000222 $SBICC NULL
      200    000222                                            {CONST}
      201    000222        DECCNT  LOP
      202    000224        DECCNT  ROP
      203    000226        QUIT
      204    000227
      205    000227 $SBIAA NULL
      206    000227        DECCNT  LOP
      207    000231        DECCNT  ROP
      208    000233        ASSIGN  AR(A),FREE

PSEUDO CODE ASSEMBLER FOR COBOL85   FILE=Z8HP.:Z8A6TSI       TUE AUG 26 '97 07:51:54.60  PAGE    9
      ESN       ISN       TEXT

      209    000235        GENI    (LDA 0,DL)
      210    000237        ASSIGN  AR(A),USED
      211    000241        QUIT
      212    000242
      213    000242 $SBIAQ NULL
      214    000242        STORE   ROP             {SAVE THE ROP IN TEMP}
      215    000244        JMP     $SBIAS          {NEW STATE: LOP=ARA, ROP = ST}
      216    000245
      217    000245 $SBIAX NULL
      218    000245        GOSUB   R_TO_Q          {MOVE XR OF ROP INTO ARQ}
      219    000246        JMP     $SBI00
      220    000247
      221    000247 $SBIAS NULL
      222    000247        DECCNT  LOP             {REFERENCE THE LOP}
      223    000251        ASSIGN  AR(A),FREE      {GOING TO CHANGE ARA}
      224    000253        GENI    SBA,ROP         {SUBTRACT}
      225    000255        JMP     $SBIUZA         {ASSIGN ARA USED AND QUIT}
      226    000256
      227    000256 $SBIQA NULL
      228    000256        STORE   ROP
      229    000260        JMP     $SBIQS          {NEW STATE: LOP=ARQ,ROP=ST}
      230    000261
      231    000261 $SBIQQ NULL
      232    000261        DECCNT  LOP
      233    000263        DECCNT  ROP
      234    000265        ASSIGN  AR(Q),FREE
      235    000267        GENI    (LDQ 0,DL)
      236    000271        ASSIGN  AR(Q),USED
      237    000273        QUIT
      238    000274
      239    000274 $SBIQX NULL
      240    000274        GOSUB   R_TO_A          {MOVE ROP'S XR INTO ARA}
      241    000275        JMP     $SBI00
      242    000276

PSEUDO CODE ASSEMBLER FOR COBOL85   FILE=Z8HP.:Z8A6TSI       TUE AUG 26 '97 07:51:54.60  PAGE   10
      ESN       ISN       TEXT

      243    000276 $SBIQS NULL
      244    000276        DECCNT  LOP
      245    000300        ASSIGN  AR(Q),FREE      {GET ARQ}
      246    000302        GENI    SBQ,ROP         {REFERENCE ROP}
      247    000304        JMP     $SBIUZQ         {ASSIGN ARQ USED AND QUIT}
      248    000305
      249    000305 $SBIXA NULL
      250    000305        GOSUB   L_TO_Q          {MOVE LOP'S XR INTO ARQ}
      251    000306        JMP     $SBI00
      252    000307
      253    000307 $SBIXQ NULL
      254    000307        GOSUB   L_TO_A          {MOVE LOP'S XR INTO ARA}
      255    000310        JMP     $SBI00
      256    000311
      257    000311 $SBIXX NULL
      258    000311        GOSUB   L_TO_Q          {MOVE LOP'S XR INTO ARQ}
      259    000312        JMP     $SBI00
      260    000313
      261    000313 $SBIXS NULL
      262    000313        GOSUB   L_TOAR          {MOVE LOP'S XR INTO AN AR}
      263    000314        JMP     $SBI00          {NEW STATE: DETERMINE IT}
      264    000315
      265    000315 $SBISA NULL
      266    000315        DECCNT  ROP
      267    000317        ASSIGN  AR(A),FREE
      268    000321        GENI    SBA,LOP         {SUBTRACT OTHER GUY}
      269    000323        GENI    (NEG 0)         {NEGATE THE ANSWER TO MAKE IT RIGHT}
      270    000325        JMP     $SBIUZA
      271    000326
      272    000326 $SBISQ NULL
      273    000326        DECCNT  ROP
      274    000330        ASSIGN  AR(AQ),FREE     {ASSURE BOTH REGS ARE FREE}
      275    000332        GENI    (LLS 36)        {MOVE CONTENTS OF Q TO ARA}
      276    000334        GENI    SBA,LOP

PSEUDO CODE ASSEMBLER FOR COBOL85   FILE=Z8HP.:Z8A6TSI       TUE AUG 26 '97 07:51:54.60  PAGE   11
      ESN       ISN       TEXT

      277    000336        GENI    (NEG 0)
      278    000340        JMP     $SBIUZA         {ASSIGN AND QUIT}
      279    000341
      280    000341 $SBISX NULL
      281    000341        GOSUB   R_TOAR          {MOVE ROP'S XR INTO AN AR}
      282    000342        JMP     $SBI00          {NEW STATE: DETERMINE IT}
      283    000343
      284    000343 $SBISS NULL
      285    000343        FAVOR   LOP,AR
      286    000345        ASSIGN  AR,FREE         {GET AN ARITH REGISTER}
      287    000347        MAPT    AR,OPMOD,2      {MAP CHOSEN REGISTER ONTO NEXT INSTRUCTION}
      288    000351        GENI    LDA,LOP         {REFERENCE LOP}
      289    000353        GENI    SBA,ROP
      290    000355        ASSIGN  AR,USED         {MARK THE LOP AS BEING AR CONTAINED}
      291    000357        QUIT
      292    000360
      293    000360 $SBIUZA NULL
      294    000360        ASSIGN  AR(A),USED      {ASSIGN ARA AS BEING USED}
      295    000362        QUIT
      296    000363
      297    000363 $SBIUZQ NULL
      298    000363        ASSIGN  AR(Q),USED      {ASSIGN ARQ AS BEING USED}
      299    000365        QUIT
      300    000366        PAGE

PSEUDO CODE ASSEMBLER FOR COBOL85   FILE=Z8HP.:Z8A6TSI       TUE AUG 26 '97 07:51:54.60  PAGE   12
      ESN       ISN       TEXT

      301    000366 MPI   START    PEPD
      302    000366 $MPI00 NULL                    {LOP * ROP (NON-OPTIMIZABLE)}
      303    000366        WALK2                   {WALK  EXPRESSIONS BELOW}
      304    000370 $MPI01 NULL
      305    000370        DSTATE  TYI17,LOPROP,XABS
      306    000372        JMPDV   XABS,16
      307    000374        JMP     $MPIAA          {OPTIMIZED ALIAS}
      308    000375        JMP     $MPIAQ          {LOP=ARA,ROP=ARQ}
      309    000376        JMP     $MPIAX          {LOP=ARA,ROP=XRn}
      310    000377        JMP     $MPIAS          {LOP=ARA,ROP=ST}
      311    000400        JMP     $MPIQA          {LOP=ARQ,ROP=ARA}
      312    000401        JMP     $MPIQQ          {OPTIMIZED ALIAS}
      313    000402        JMP     $MPIQX          {LOP=ARQ,ROP=XRn}
      314    000403        JMP     $MPIQS          {LOP=ARQ,ROP=ST}
      315    000404        JMP     $MPIXA          {LOP=XRn,ROP=ARA}
      316    000405        JMP     $MPIXQ          {LOP=XRn,ROP=ARQ}
      317    000406        JMP     $MPIXX          {LOP=XRn,ROP=XRn}
      318    000407        JMP     $MPIXS          {LOP=XRn,ROP=ST}
      319    000410        JMP     $MPISA          {LOP=ST ,ROP=ARA}
      320    000411        JMP     $MPISQ          {LOP=ST ,ROP=ARQ}
      321    000412        JMP     $MPISX          {LOP=ST ,ROP=XRn}
      322    000413        JMP     $MPISS          {LOP=ST ,ROP=ST}
      323    000414
      324    000414 $MPICC NULL
      325    000414                                            {CONST}
      326    000414        DECCNT  LOP
      327    000416        DECCNT  ROP
      328    000420        QUIT
      329    000421
      330    000421 $MPIAA NULL
      331    000421        STORE   LOP
      332    000423        JMP     $MPISA
      333    000424

PSEUDO CODE ASSEMBLER FOR COBOL85   FILE=Z8HP.:Z8A6TSI       TUE AUG 26 '97 07:51:54.60  PAGE   13
      ESN       ISN       TEXT

      334    000424 $MPIAQ NULL
      335    000424        STORE   LOP             {SAVE THE LOP IN TEMP}
      336    000426        JMP     $MPISQ          {NEW STATE: LOP=ST ,ROP=ARQ}
      337    000427
      338    000427 $MPIAX NULL
      339    000427        GOSUB   R_TO_Q          {MOVE ROP'S XR INTO ARQ}
      340    000430        JMP     $MPI00
      341    000431
      342    000431 $MPIAS NULL
      343    000431        DECCNT  LOP
      344    000433        ASSIGN  AR(AQ),FREE     {ASSURE BOTH REGS ARE FREE}
      345    000435        GENI    (LRS 36)        {MOVE ARA TO ARQ}
      346    000437        GENI    MPY,ROP
      347    000441        JMP     $MPIUZQ         {ASSIGN Q USED AND QUIT}
      348    000442
      349    000442 $MPIQA NULL
      350    000442        STORE   ROP             {SAVE THE ROP IN TEMP STORAGE}
      351    000444        JMP     $MPIQS          {NEW STATE:LOP=ARQ,ROP=ST}
      352    000445
      353    000445 $MPIQQ NULL
      354    000445        STORE   LOP
      355    000447        JMP     $MPISQ
      356    000450
      357    000450 $MPIQX NULL
      358    000450        GOSUB   R_TO_A          {MOVE ROP'S XR INTO ARA}
      359    000451        JMP     $MPI00
      360    000452
      361    000452 $MPIQS NULL
      362    000452        DECCNT  LOP             {REFERENCE THE LOP AGAIN}
      363    000454        ASSIGN  AR(AQ),FREE     {WE'RE GOING TO ZAP BOTH THE A AND THE Q}
      364    000456        GENI    MPY,ROP         {MULTIPLY}
      365    000460        JMP     $MPIUZQ         {ASSIGN ARQ USED AND QUIT}
      366    000461
      367    000461 $MPIXA NULL

PSEUDO CODE ASSEMBLER FOR COBOL85   FILE=Z8HP.:Z8A6TSI       TUE AUG 26 '97 07:51:54.60  PAGE   14
      ESN       ISN       TEXT

      368    000461        GOSUB   L_TO_Q          {LOP'S XR TO ARQ}
      369    000462        JMP     $MPI00
      370    000463
      371    000463 $MPIXQ NULL
      372    000463        GOSUB   L_TO_A          {LOP'S XR TO A}
      373    000464        JMP     $MPI00
      374    000465
      375    000465 $MPIXX NULL
      376    000465        GOSUB   L_TOAR          {LOP'S XR TO AN AR}
      377    000466        JMP     $MPI00          {MAY BE SX OR SS. FIGURE IT OUT}
      378    000467
      379    000467 $MPIXS NULL
      380    000467        GOSUB   L_TOAR          {LOP'S XR TO AN AR}
      381    000470        JMP     $MPI00          {NEW STATE: DETERMINE IT}
      382    000471
      383    000471 $MPISA NULL
      384    000471        DECCNT  ROP
      385    000473        ASSIGN  AR(AQ),FREE     {ASSURE BOTH REGS ARE FREE}
      386    000475        GENI    (LRS 36)        {MOVE ARA TO ARQ}
      387    000477        GENI    MPY,LOP
      388    000501        JMP     $MPIUZQ         {ASSIGN ARQ USED THEN QUIT}
      389    000502
      390    000502 $MPISQ NULL
      391    000502        DECCNT  ROP             {REFERENCE IT AGAIN}
      392    000504        ASSIGN  AR(AQ),FREE     {NEED BOTH}
      393    000506        GENI    MPY,LOP         {MULTIPLY}
      394    000510        JMP     $MPIUZQ         {ASSIGN ARQ USED  AND QUIT}
      395    000511
      396    000511 $MPISX NULL
      397    000511        GOSUB   R_TOAR          {ROP'S XR TO AN AR}
      398    000512        JMP     $MPI00          {NEW STATE: DETERMINE IT}
      399    000513
      400    000513 $MPISS NULL
      401    000513        FAVOR   LOP,AR

PSEUDO CODE ASSEMBLER FOR COBOL85   FILE=Z8HP.:Z8A6TSI       TUE AUG 26 '97 07:51:54.60  PAGE   15
      ESN       ISN       TEXT

      402    000515        FAVOR   ROP,ARA
      403    000517        ASSIGN  AR(AQ),FREE     {ZAP BOTH}
      404    000521        GENI    LDQ,LOP         {MAY AS WELL USE THE LOP}
      405    000523        GENI    MPY,ROP
      406    000525
      407    000525 $MPIUZQ NULL
      408    000525        ASSIGN  AR(Q),USED      {ASSIGN ARQ TO CURRENT TRIAD}
      409    000527        CASE                    {Set GREATER_256K bit if need be}
      410    000531        QUIT
      411    000532
      412    000532        PAGE

PSEUDO CODE ASSEMBLER FOR COBOL85   FILE=Z8HP.:Z8A6TSI       TUE AUG 26 '97 07:51:54.60  PAGE   16
      ESN       ISN       TEXT

      413    000532 DVI   START    PEPD                  {LOP / ROP}
      414    000532        WALK2
      415    000534 $DVI00 NULL
      416    000534        DSTATE  TYI17,LOPROP,XABS
      417    000536        JMPDV   XABS,16
      418    000540        JMP     $DVIAA          {OPTIMIZED ALIAS}
      419    000541        JMP     $DVIAQ          {LOP=ARA,ROP=ARQ}
      420    000542        JMP     $DVIAX          {LOP=ARA,ROP=XRn}
      421    000543        JMP     $DVIAS          {LOP=ARA,ROP=ST}
      422    000544        JMP     $DVIQA          {LOP=ARQ,ROP=ARA}
      423    000545        JMP     $DVIQQ          {OPTIMIZED ALIAS}
      424    000546        JMP     $DVIQX          {LOP=ARQ,ROP=XRn}
      425    000547        JMP     $DVIQS          {LOP=ARQ,ROP=ST}
      426    000550        JMP     $DVIXA          {LOP=XRn,ROP=ARA}
      427    000551        JMP     $DVIXQ          {LOP=XRn,ROP=ARQ}
      428    000552        JMP     $DVIXX          {LOP=XRn,ROP=XRn}
      429    000553        JMP     $DVIXS          {LOP=XRn,ROP=ST}
      430    000554        JMP     $DVISA          {LOP=ST ,ROP=ARA}
      431    000555        JMP     $DVISQ          {LOP=ST ,ROP=ARQ}
      432    000556        JMP     $DVISX          {LOP=ST ,ROP=XRn}
      433    000557        JMP     $DVISS          {LOP=ST ,ROP=ST}
      434    000560
      435    000560 $DVICC NULL
      436    000560                                            {CONST}
      437    000560        DECCNT  LOP
      438    000562        DECCNT  ROP
      439    000564        QUIT
      440    000565
      441    000565 $DVIAA NULL
      442    000565        DECCNT  LOP
      443    000567        DECCNT  ROP
      444    000571        ASSIGN  AR(A),FREE
      445    000573        GENI    (LDA 1,DL)

PSEUDO CODE ASSEMBLER FOR COBOL85   FILE=Z8HP.:Z8A6TSI       TUE AUG 26 '97 07:51:54.60  PAGE   17
      ESN       ISN       TEXT

      446    000575        ASSIGN  AR(A),USED
      447    000577        QUIT
      448    000600
      449    000600 $DVIAQ NULL
      450    000600        STORE   ROP             {SAVE ROP IN TEMP}
      451    000602        JMP     $DVIAS          {NEW STATE: LOP=ARA,ROP=ST}
      452    000603
      453    000603 $DVIAX NULL
      454    000603        GOSUB   R_TO_Q          {ROP'S XR TO ARQ}
      455    000604        JMP     $DVIAQ
      456    000605
      457    000605 $DVIAS NULL
      458    000605        DECCNT  LOP
      459    000607        ASSIGN  AR(AQ),FREE     {ASSURE BOTH REGS ARE FREE}
      460    000611        GENI    (LRS 36)        {MOVE ARA TO ARQ}
      461    000613        GENI    DIV,ROP
      462    000615        JMP     $DVIUZQ
      463    000616
      464    000616 $DVIQA NULL
      465    000616        STORE   ROP             {SAVE ROP IN TEMP}
      466    000620        JMP     $DVIQS          {NEW STATE: LOP=ARQ,ROP=ST}
      467    000621
      468    000621 $DVIQQ NULL
      469    000621        DECCNT  LOP
      470    000623        DECCNT  ROP
      471    000625        ASSIGN  AR(Q),FREE
      472    000627        GENI    (LDQ 1,DL)
      473    000631        ASSIGN  AR(Q),USED
      474    000633        QUIT
      475    000634
      476    000634 $DVIQX NULL
      477    000634        GOSUB   R_TO_A          {ROP'S XR TO AN AR}
      478    000635        JMP     $DVI00
      479    000636

PSEUDO CODE ASSEMBLER FOR COBOL85   FILE=Z8HP.:Z8A6TSI       TUE AUG 26 '97 07:51:54.60  PAGE   18
      ESN       ISN       TEXT

      480    000636 $DVIQS NULL
      481    000636        DECCNT  LOP             {IMPLIED REFERENCE TO LOP}
      482    000640        ASSIGN  AR(AQ),FREE     {GOING TO CLOBBER ARA AND ARQ}
      483    000642        GENI    DIV,ROP         {DO DIVIDE}
      484    000644        JMP     $DVIUZQ         {ASSIGN ARQ USED AND QUIT}
      485    000645
      486    000645 $DVIXA NULL
      487    000645        GOSUB   L_TO_Q          {LOP'S XR INTO ARQ}
      488    000646        JMP     $DVI00
      489    000647
      490    000647 $DVIXQ NULL
      491    000647        GOSUB   L_TO_A          {MOVE LOP'S XR TO ARA}
      492    000650        JMP     $DVI00
      493    000651
      494    000651 $DVIXX NULL
      495    000651        GOSUB   L_TOAR          {LOP'S XR TO AN AR}
      496    000652        JMP     $DVI00          {NEW STATE: DETERMINE IT}
      497    000653
      498    000653 $DVIXS NULL
      499    000653        GOSUB   L_TO_Q          {MOVE INDEX REGISTER TO ARQ}
      500    000654        JMP     $DVI00
      501    000655
      502    000655 $DVISA NULL
      503    000655        STORE   ROP             {SAVE ROP IN TEMP}
      504    000657        JMP     $DVISS          {NEW STATE: LOP=ST ,ROP=ST}
      505    000660
      506    000660 $DVISQ EQUATE     $DVISA          {SAME AS DVISA}
      507    000660
      508    000660 $DVISX NULL
      509    000660        GOSUB   R_TO_Q          {ROP'S XR TO ARQ}
      510    000661        JMP     $DVI00
      511    000662
      512    000662 $DVISS NULL
      513    000662        FAVOR   LOP,AR

PSEUDO CODE ASSEMBLER FOR COBOL85   FILE=Z8HP.:Z8A6TSI       TUE AUG 26 '97 07:51:54.60  PAGE   19
      ESN       ISN       TEXT

      514    000664        FAVOR   ROP,ARA
      515    000666        ASSIGN  AR(AQ),FREE     {GOING TO CLOBBER BOTH}
      516    000670        GENI    LDQ,LOP         {LOAD LOP}
      517    000672        GENI    DIV,ROP         {DO DIVIDE}
      518    000674
      519    000674 $DVIUZQ NULL
      520    000674        ASSIGN  AR(Q),USED      {ASSIGN ARQ AS BEING USED}
      521    000676        QUIT
      522    000677        PAGE

PSEUDO CODE ASSEMBLER FOR COBOL85   FILE=Z8HP.:Z8A6TSI       TUE AUG 26 '97 07:51:54.60  PAGE   20
      ESN       ISN       TEXT

      523    000677 MODI   START    PEPD                  {LOP / ROP}
      524    000677        WALK2
      525    000701 $MODI00  NULL
      526    000701        DSTATE  TYI17,LOPROP,XABS
      527    000703        JMPDV   XABS,16
      528    000705        JMP     $MODIAA           {OPTIMIZED ALIAS}
      529    000706        JMP     $MODIAQ           {LOP=ARA,ROP=ARQ}
      530    000707        JMP     $MODIAX           {LOP=ARA,ROP=XRn}
      531    000710        JMP     $MODIAS           {LOP=ARA,ROP=ST}
      532    000711        JMP     $MODIQA           {LOP=ARQ,ROP=ARA}
      533    000712        JMP     $MODIQQ           {OPTIMIZED ALIAS}
      534    000713        JMP     $MODIQX           {LOP=ARQ,ROP=XRn}
      535    000714        JMP     $MODIQS           {LOP=ARQ,ROP=ST}
      536    000715        JMP     $MODIXA           {LOP=XRn,ROP=ARA}
      537    000716        JMP     $MODIXQ           {LOP=XRn,ROP=ARQ}
      538    000717        JMP     $MODIXX           {LOP=XRn,ROP=XRn}
      539    000720        JMP     $MODIXS           {LOP=XRn,ROP=ST}
      540    000721        JMP     $MODISA           {LOP=ST ,ROP=ARA}
      541    000722        JMP     $MODISQ           {LOP=ST ,ROP=ARQ}
      542    000723        JMP     $MODISX           {LOP=ST ,ROP=XRn}
      543    000724        JMP     $MODISS           {LOP=ST ,ROP=ST}
      544    000725
      545    000725 $MODICC  NULL
      546    000725                                            {CONST}
      547    000725        DECCNT  LOP
      548    000727        DECCNT  ROP
      549    000731        QUIT
      550    000732
      551    000732 $MODIAA  NULL
      552    000732        DECCNT  LOP
      553    000734        DECCNT  ROP
      554    000736        ASSIGN  AR(A),FREE
      555    000740        GENI    (LDA 0,DL)

PSEUDO CODE ASSEMBLER FOR COBOL85   FILE=Z8HP.:Z8A6TSI       TUE AUG 26 '97 07:51:54.60  PAGE   21
      ESN       ISN       TEXT

      556    000742        ASSIGN  AR(A),USED
      557    000744        QUIT
      558    000745
      559    000745 $MODIAQ  NULL
      560    000745        STORE   ROP             {SAVE ROP IN TEMP}
      561    000747        JMP     $MODIAS           {NEW STATE: LOP=ARA,ROP=ST}
      562    000750
      563    000750 $MODIAX  NULL
      564    000750        GOSUB   R_TO_Q          {ROP'S XR TO ARQ}
      565    000751        JMP     $MODIAQ
      566    000752
      567    000752 $MODIAS  NULL
      568    000752        DECCNT  LOP
      569    000754        ASSIGN  AR(AQ),FREE     {ASSURE BOTH REGS ARE FREE}
      570    000756        GENI    (LRS 36)        {MOVE ARA TO ARQ}
      571    000760        GENI    DIV,ROP
      572    000762        JMP     $MODIUZQ
      573    000763
      574    000763 $MODIQA  NULL
      575    000763        STORE   ROP             {SAVE ROP IN TEMP}
      576    000765        JMP     $MODIQS           {NEW STATE: LOP=ARQ,ROP=ST}
      577    000766
      578    000766 $MODIQQ  NULL
      579    000766        DECCNT  LOP
      580    000770        DECCNT  ROP
      581    000772        ASSIGN  AR(Q),FREE
      582    000774        GENI    (LDQ 0,DL)
      583    000776        ASSIGN  AR(Q),USED
      584    001000        QUIT
      585    001001
      586    001001 $MODIQX  NULL
      587    001001        GOSUB   R_TO_A          {ROP'S XR TO AN AR}
      588    001002        JMP     $MODI00
      589    001003

PSEUDO CODE ASSEMBLER FOR COBOL85   FILE=Z8HP.:Z8A6TSI       TUE AUG 26 '97 07:51:54.60  PAGE   22
      ESN       ISN       TEXT

      590    001003 $MODIQS  NULL
      591    001003        DECCNT  LOP             {IMPLIED REFERENCE TO LOP}
      592    001005        ASSIGN  AR(AQ),FREE     {GOING TO CLOBBER ARA AND ARQ}
      593    001007        GENI    DIV,ROP         {DO DIVIDE}
      594    001011        JMP     $MODIUZQ          {ASSIGN ARQ USED AND QUIT}
      595    001012
      596    001012 $MODIXA  NULL
      597    001012        GOSUB   L_TO_Q          {LOP'S XR INTO ARQ}
      598    001013        JMP     $MODI00
      599    001014
      600    001014 $MODIXQ  NULL
      601    001014        GOSUB   L_TO_A          {MOVE LOP'S XR TO ARA}
      602    001015        JMP     $MODI00
      603    001016
      604    001016 $MODIXX  NULL
      605    001016        GOSUB   L_TOAR          {LOP'S XR TO AN AR}
      606    001017        JMP     $MODI00           {NEW STATE: DETERMINE IT}
      607    001020
      608    001020 $MODIXS  NULL
      609    001020        GOSUB   L_TO_Q          {MOVE INDEX REGISTER TO ARQ}
      610    001021        JMP     $MODI00
      611    001022
      612    001022 $MODISA  NULL
      613    001022        STORE   ROP             {SAVE ROP IN TEMP}
      614    001024        JMP     $MODISS           {NEW STATE: LOP=ST ,ROP=ST}
      615    001025
      616    001025 $MODISQ  EQUATE     $MODISA          {SAME AS DVISA}
      617    001025
      618    001025 $MODISX  NULL
      619    001025        GOSUB   R_TO_Q          {ROP'S XR TO ARQ}
      620    001026        JMP     $MODI00
      621    001027
      622    001027 $MODISS  NULL
      623    001027        FAVOR   LOP,AR

PSEUDO CODE ASSEMBLER FOR COBOL85   FILE=Z8HP.:Z8A6TSI       TUE AUG 26 '97 07:51:54.60  PAGE   23
      ESN       ISN       TEXT

      624    001031        FAVOR   ROP,ARA
      625    001033        ASSIGN  AR(AQ),FREE     {GOING TO CLOBBER BOTH}
      626    001035        GENI    LDQ,LOP         {LOAD LOP}
      627    001037        GENI    DIV,ROP         {DO DIVIDE}
      628    001041
      629    001041 $MODIUZQ NULL
      630    001041        ASSIGN  AR(A),USED      {ASSIGN ARQ AS BEING USED}
      631    001043        QUIT
      632    001044        PAGE

PSEUDO CODE ASSEMBLER FOR COBOL85   FILE=Z8HP.:Z8A6TSI       TUE AUG 26 '97 07:51:54.60  PAGE   24
      ESN       ISN       TEXT

      633    001044 ASC_BIN START   PEPD
      634    001044
      635    001044 { Convert the character described by the lop (which will
      636    001044   be imbedded somewhere in a word) to binary and leave
      637    001044   it in the temporary storage that was created.  }
      638    001044
      639    001044        WALK    LOP
      640    001046
      641    001046        ALLOT   NEXT,TYI,XOPND,4,9
      642    001050
      643    001050        DEFER
      644    001052        GENI    (MRL ,,000,0)
      645    001054        GENI    ADSC9,LOP
      646    001056        GENI    ADSC9,XOPND
      647    001060        WRAPUP
      648    001062
      649    001062        ATTACH  XOPND
      650    001064        QUIT
      651    001065        PAGE

PSEUDO CODE ASSEMBLER FOR COBOL85   FILE=Z8HP.:Z8A6TSI       TUE AUG 26 '97 07:51:54.60  PAGE   25
      ESN       ISN       TEXT

      652    001065 BIN_ASC START PEPD
      653    001065 { Convert the low order 9 bits of the binary number described by
      654    001065   the lop to the ordinal equivalent character, left justified
      655    001065   in a word of temporary storage }
      656    001065
      657    001065         WALK   LOP
      658    001067
      659    001067         ALLOT  NEXT,TYA,XOPND,4,9
      660    001071
      661    001071         ASSIGN AR,FREE
      662    001073
      663    001073         MAPT   AR,OPMOD,3
      664    001075         GENI   LDA,LOP
      665    001077         GENI   (ALS 27)
      666    001101         GENI   STA,XOPND
      667    001103
      668    001103         ATTACH XOPND
      669    001105         QUIT
      670    001106         PAGE

PSEUDO CODE ASSEMBLER FOR COBOL85   FILE=Z8HP.:Z8A6TSI       TUE AUG 26 '97 07:51:54.60  PAGE   26
      ESN       ISN       TEXT

      671    001106 MINI  START    PEPD                  {LOP If LOP < ROP, else ROP}
      672    001106        WALK2                   {WALK  EXP FIRST, THEN REFS}
      673    001110
      674    001110 $MINI00 NULL
      675    001110        DSTATE  TYI16,LOPROP,XABS
      676    001112        JMPDV   XABS,16
      677    001114        JMP     $MINIAA          {OPTIMIZED ALIAS}
      678    001115        JMP     $MINIAQ          {LOP=ARA,ROP=ARQ}
      679    001116        JMP     $MINIAX          {LOP=ARA,ROP=XRn}
      680    001117        JMP     $MINIAS          {LOP=ARA,ROP=ST}
      681    001120        JMP     $MINIQA          {LOP=ARQ,ROP=ARA}
      682    001121        JMP     $MINIQQ          {OPTIMIZED ALIAS}
      683    001122        JMP     $MINIQX          {LOP=ARQ,ROP=XRn}
      684    001123        JMP     $MINIQS          {LOP=ARQ,ROP=ST}
      685    001124        JMP     $MINIXA          {LOP=XRn,ROP=ARA}
      686    001125        JMP     $MINIXQ          {LOP=XRn,ROP=ARQ}
      687    001126        JMP     $MINIXX          {LOP=XRn,ROP=XRn}
      688    001127        JMP     $MINIXS          {LOP=XRn,ROP=ST}
      689    001130        JMP     $MINISA          {LOP=ST ,ROP=ARA}
      690    001131        JMP     $MINISQ          {LOP=ST ,ROP=ARQ}
      691    001132        JMP     $MINISX          {LOP=ST ,ROP=XRn}
      692    001133        JMP     $MINISS          {LOP=ST ,ROP=ST}
      693    001134
      694    001134 $MINIAA NULL
      695    001134        DECCNT  LOP
      696    001136        DECCNT  ROP
      697    001140        ASSIGN  AR(A),USED
      698    001142        QUIT
      699    001143
      700    001143 $MINIAQ NULL
      701    001143        STORE   ROP             {STORE ROP IN TEMP}
      702    001145        JMP     $MINIAS          {NEW STATE: LOP=ARA,ROP=ST}
      703    001146

PSEUDO CODE ASSEMBLER FOR COBOL85   FILE=Z8HP.:Z8A6TSI       TUE AUG 26 '97 07:51:54.60  PAGE   27
      ESN       ISN       TEXT

      704    001146 $MINIAX NULL
      705    001146        GOSUB   R_TO_Q          {MOVE ROP'S XR TO ARQ}
      706    001147        JMP     $MINI00
      707    001150
      708    001150 $MINIAS NULL
      709    001150        DECCNT  LOP             {IMPLICIT REFERENCE TO LOP}
      710    001152        ASSIGN  AR(A),FREE
      711    001154        INCCNT  ROP
      712    001156        GENI    CMPA,ROP
      713    001160        GENI    (TMI 2,IC)
      714    001162        GENI    LDA,ROP
      715    001164        JMP     $MINI_A
      716    001165
      717    001165 $MINIQA NULL
      718    001165        STORE   LOP             {STORE LOP IN TEMP}
      719    001167        JMP     $MINISA          {NEW STATE: LOP=ST ,ROP=ARA}
      720    001170
      721    001170 $MINIQQ NULL
      722    001170        DECCNT  LOP
      723    001172        DECCNT  ROP
      724    001174        ASSIGN  AR(Q),USED
      725    001176        QUIT
      726    001177
      727    001177 $MINIQX NULL
      728    001177        GOSUB   R_TO_A          {MOVE ROP'S XR TO ARA}
      729    001200        JMP     $MINI00
      730    001201
      731    001201 $MINIQS NULL
      732    001201        DECCNT  LOP             {IMPLICIT REFERENCE TO LOP}
      733    001203        ASSIGN  AR(Q),FREE      {FREE AR(Q)}
      734    001205        INCCNT  ROP
      735    001207        GENI    CMPQ,ROP
      736    001211        GENI    (TMI 2,IC)
      737    001213        GENI    LDQ,ROP

PSEUDO CODE ASSEMBLER FOR COBOL85   FILE=Z8HP.:Z8A6TSI       TUE AUG 26 '97 07:51:54.60  PAGE   28
      ESN       ISN       TEXT

      738    001215        JMP     $MINI_Q          {ASSIGN AR(Q) AND QUIT}
      739    001216
      740    001216 $MINIXA NULL
      741    001216        GOSUB   L_TO_Q          {MOVE LOP'S XR INTO ARQ}
      742    001217        JMP     $MINI00
      743    001220
      744    001220 $MINIXQ NULL
      745    001220        GOSUB   L_TO_A          {MOVE LOP'S XR INTO ARA}
      746    001221        JMP     $MINI00
      747    001222
      748    001222 $MINIXX NULL
      749    001222        GOSUB   L_TOAR          {MOVE LOP'S XR INTO AN ARITHMETIC REGISTER}
      750    001223        JMP     $MINI00          {NEW STATE: DETERMINE IT}
      751    001224
      752    001224 $MINIXS NULL
      753    001224        GOSUB   L_TOAR          {MOVE LOP'S INDEX REG TO AN AR}
      754    001225        JMP     $MINI00          {NEW STATE: DETERMINE IT}
      755    001226
      756    001226 $MINISA NULL
      757    001226        DECCNT  ROP             {IMPLICIT REFERENCE TO ROP}
      758    001230        ASSIGN  AR(A),FREE      {GET AR(A) READY FOR USE}
      759    001232        INCCNT  LOP
      760    001234        GENI    CMPA,LOP
      761    001236        GENI    (TMI 2,IC)
      762    001240        GENI    LDA,LOP
      763    001242        JMP     $MINI_A          {ASSIGN AR(A) AND QUIT}
      764    001243
      765    001243 $MINISQ NULL
      766    001243        DECCNT  ROP             {IMPLICIT REFERENCE OF ROP}
      767    001245        ASSIGN  AR(Q),FREE      {FREE AR(Q)}
      768    001247        INCCNT  LOP
      769    001251        GENI    CMPQ,LOP
      770    001253        GENI    (TMI 2,IC)
      771    001255        GENI    LDQ,LOP

PSEUDO CODE ASSEMBLER FOR COBOL85   FILE=Z8HP.:Z8A6TSI       TUE AUG 26 '97 07:51:54.60  PAGE   29
      ESN       ISN       TEXT

      772    001257        JMP     $MINI_Q
      773    001260
      774    001260 $MINISX NULL
      775    001260        GOSUB   R_TOAR          {MOVE LOP'S XR INTO AN AR}
      776    001261        JMP     $MINI00          {NEW STATE: DETERMINE IT}
      777    001262
      778    001262 $MINISS NULL
      779    001262        FAVOR   LOP,AR          {TELL REGISTER MANAGEMENT ABOUT LOP}
      780    001264        ASSIGN  AR,FREE         {PICK AN AR, HOPEFULLY THE CHEAPEST}
      781    001266        MAPT    AR,OPMOD,2      {MAP CHOSEN AR ONTO OPCODE}
      782    001270        GENI    LDA,LOP         {GENI LDA OR LDQ}
      783    001272        GENI    CMPA,ROP
      784    001274        GENI    (TMI 2,IC)
      785    001276        MAPT    AR,OPMOD
      786    001300        GENI    LDA,ROP
      787    001302        ASSIGN  AR,USED         {ASSIGN USED WHICHEVER WE CHOSE}
      788    001304        QUIT
      789    001305
      790    001305 $MINI_A NULL
      791    001305        ASSIGN  AR(A),USED      {ASSIGN AR(A) TO A USED STATE}
      792    001307        QUIT
      793    001310
      794    001310 $MINI_Q NULL
      795    001310        ASSIGN  AR(Q),USED      {ASSIGN AR(Q) TO A USED STATE}
      796    001312        QUIT
      797    001313        PAGE

PSEUDO CODE ASSEMBLER FOR COBOL85   FILE=Z8HP.:Z8A6TSI       TUE AUG 26 '97 07:51:54.60  PAGE   30
      ESN       ISN       TEXT

      798    001313 MIND   START   PEPD
      799    001313        WALK2
      800    001315
      801    001315        ALLOTD  XOPND
      802    001317        INCCNT  XOPND
      803    001321
      804    001321        INCCNT  LOP
      805    001323        INCCNT  ROP
      806    001325
      807    001325        DEFER
      808    001327        GENI    (CMPN (0,0,0,N),(0,0,0,N))
      809    001331        GENI    NDSC9,ROP
      810    001333        GENI    NDSC9,LOP
      811    001335        WRAPUP
      812    001337
      813    001337        GENI    (TMI 5,IC)
      814    001341
      815    001341        DEFER
      816    001343        GENI    (MVN (0,0,0,N),(0,0,0,N))
      817    001345        GENI    NDSC9,ROP
      818    001347        GENI    NDSC9,XOPND
      819    001351        WRAPUP
      820    001353
      821    001353        GENI    (TRA 4,IC)
      822    001355
      823    001355        DEFER
      824    001357        GENI    (MVN (0,0,0,N),(0,0,0,N))
      825    001361        GENI    NDSC9,LOP
      826    001363        GENI    NDSC9,XOPND
      827    001365        WRAPUP
      828    001367
      829    001367        ATTACH  XOPND
      830    001371        QUIT

PSEUDO CODE ASSEMBLER FOR COBOL85   FILE=Z8HP.:Z8A6TSI       TUE AUG 26 '97 07:51:54.60  PAGE   31
      ESN       ISN       TEXT

      831    001372        PAGE

PSEUDO CODE ASSEMBLER FOR COBOL85   FILE=Z8HP.:Z8A6TSI       TUE AUG 26 '97 07:51:54.60  PAGE   32
      ESN       ISN       TEXT

      832    001372 MINO   START   PEPD
      833    001372        WALK2
      834    001374
      835    001374        ALLOTD  XOPND
      836    001376        INCCNT  XOPND
      837    001400
      838    001400        INCCNT  LOP
      839    001402        INCCNT  ROP
      840    001404
      841    001404        DEFER
      842    001406        GENI    (CMPNX (0,0,0,N),(0,0,0,N),1,0)
      843    001410        GENI    NDSC9,ROP
      844    001412        GENI    NDSC9,LOP
      845    001414        WRAPUP
      846    001416
      847    001416        GENI    (TMI 5,IC)
      848    001420
      849    001420        DEFER
      850    001422        GENI    (MVNX ,,1,0)
      851    001424        GENI    NDSC9,ROP
      852    001426        GENI    NDSC9,XOPND
      853    001430        WRAPUP
      854    001432
      855    001432        GENI    (TRA 4,IC)
      856    001434
      857    001434        DEFER
      858    001436        GENI    (MVNX ,,1,0)
      859    001440        GENI    NDSC9,LOP
      860    001442        GENI    NDSC9,XOPND
      861    001444        WRAPUP
      862    001446
      863    001446        ATTACH  XOPND
      864    001450        QUIT

PSEUDO CODE ASSEMBLER FOR COBOL85   FILE=Z8HP.:Z8A6TSI       TUE AUG 26 '97 07:51:54.60  PAGE   33
      ESN       ISN       TEXT

      865    001451        PAGE

PSEUDO CODE ASSEMBLER FOR COBOL85   FILE=Z8HP.:Z8A6TSI       TUE AUG 26 '97 07:51:54.60  PAGE   34
      ESN       ISN       TEXT

      866    001451 DV4I  START    PEPD                  {LOP / ROP -> TO, AR(A) -> REM}
      867    001451
      868    001451        MOVE    ILL(REMAIN),PCOM(ROPND)
      869    001453        WALK    ROPND           {Remainder result goes here.}
      870    001455
      871    001455        WALK3
      872    001457        ASSIGN  IND,FREE
      873    001461 $DV4I00 NULL
      874    001461        DSTATE  TYI16,LOPROP,XABS
      875    001463        JMPDV   XABS,15
      876    001465        JMP     $DV4IAA          {OPTIMIZED ALIAS}
      877    001466        JMP     $DV4IAQ          {LOP=ARA,ROP=ARQ}
      878    001467        JMP     $DV4IAX          {LOP=ARA,ROP=XRn}
      879    001470        JMP     $DV4IAS          {LOP=ARA,ROP=ST}
      880    001471        JMP     $DV4IQA          {LOP=ARQ,ROP=ARA}
      881    001472        JMP     $DV4IQQ          {OPTIMIZED ALIAS}
      882    001473        JMP     $DV4IQX          {LOP=ARQ,ROP=XRn}
      883    001474        JMP     $DV4IQS          {LOP=ARQ,ROP=ST}
      884    001475        JMP     $DV4IXA          {LOP=XRn,ROP=ARA}
      885    001476        JMP     $DV4IXQ          {LOP=XRn,ROP=ARQ}
      886    001477        JMP     $DV4IXX          {LOP=XRn,ROP=XRn}
      887    001500        JMP     $DV4IXS          {LOP=XRn,ROP=ST}
      888    001501        JMP     $DV4ISA          {LOP=ST ,ROP=ARA}
      889    001502        JMP     $DV4ISQ          {LOP=ST ,ROP=ARQ}
      890    001503        JMP     $DV4ISX          {LOP=ST ,ROP=XRn}
      891    001504        JMP     $DV4ISS          {LOP=ST ,ROP=ST}
      892    001505
      893    001505 $DV4IAA NULL
      894    001505        DECCNT  LOP
      895    001507        DECCNT  ROP
      896    001511        ASSIGN  AR(A),FREE
      897    001513        GENI    (LDA 1,DL)
      898    001515        GENI    STA,TO

PSEUDO CODE ASSEMBLER FOR COBOL85   FILE=Z8HP.:Z8A6TSI       TUE AUG 26 '97 07:51:54.60  PAGE   35
      ESN       ISN       TEXT

      899    001517        GENI    STZ,ROPND
      900    001521        ASSIGN  AR(A),USED,TO
      901    001523        QUIT
      902    001524
      903    001524 $DV4IAQ NULL
      904    001524        STORE   ROP             {SAVE ROP IN TEMP}
      905    001526        JMP     $DV4IAS          {NEW STATE: LOP=ARA,ROP=ST}
      906    001527
      907    001527 $DV4IAX NULL
      908    001527        GOSUB   R_TO_Q          {ROP'S XR TO ARQ}
      909    001530        JMP     $DV4IAQ
      910    001531
      911    001531 $DV4IAS NULL
      912    001531        DECCNT  LOP
      913    001533        ASSIGN  AR(AQ),FREE     {ASSURE BOTH REGS ARE FREE}
      914    001535        GENI    (LRS 36)        {MOVE ARA TO ARQ}
      915    001537        GENI    DIV,ROP
      916    001541        JMP     $DV4I__
      917    001542
      918    001542 $DV4IQA NULL
      919    001542        STORE   ROP             {SAVE ROP IN TEMP}
      920    001544        JMP     $DV4IQS          {NEW STATE: LOP=ARQ,ROP=ST}
      921    001545
      922    001545 $DV4IQQ NULL
      923    001545        DECCNT  LOP
      924    001547        DECCNT  ROP
      925    001551        ASSIGN  AR(Q),FREE
      926    001553        GENI    (LDQ 1,DL)
      927    001555        GENI    STQ,TO
      928    001557        GENI    STZ,ROPND
      929    001561        ASSIGN  AR(Q),USED,TO
      930    001563        QUIT
      931    001564
      932    001564 $DV4IQX NULL

PSEUDO CODE ASSEMBLER FOR COBOL85   FILE=Z8HP.:Z8A6TSI       TUE AUG 26 '97 07:51:54.60  PAGE   36
      ESN       ISN       TEXT

      933    001564        GOSUB   R_TO_A          {ROP'S XR TO AN AR}
      934    001565        JMP     $DV4I00
      935    001566
      936    001566 $DV4IQS NULL
      937    001566        DECCNT  LOP             {IMPLIED REFERENCE TO LOP}
      938    001570        ASSIGN  AR(AQ),FREE     {GOING TO CLOBBER ARA AND ARQ}
      939    001572        GENI    DIV,ROP         {DO DIVIDE}
      940    001574        JMP     $DV4I__          {ASSIGN ARQ USED AND QUIT}
      941    001575
      942    001575 $DV4IXA NULL
      943    001575        GOSUB   L_TO_Q          {LOP'S XR INTO ARQ}
      944    001576        JMP     $DV4I00
      945    001577
      946    001577 $DV4IXQ NULL
      947    001577        GOSUB   L_TO_A          {MOVE LOP'S XR TO ARA}
      948    001600        JMP     $DV4I00
      949    001601
      950    001601 $DV4IXX NULL
      951    001601        GOSUB   L_TOAR          {LOP'S XR TO AN AR}
      952    001602        JMP     $DV4I00          {NEW STATE: DETERMINE IT}
      953    001603
      954    001603 $DV4IXS NULL
      955    001603        GOSUB   L_TO_Q          {MOVE INDEX REGISTER TO ARQ}
      956    001604        JMP     $DV4I00
      957    001605
      958    001605 $DV4ISA NULL
      959    001605        STORE   ROP             {SAVE ROP IN TEMP}
      960    001607        JMP     $DV4ISS          {NEW STATE: LOP=ST ,ROP=ST}
      961    001610
      962    001610 $DV4ISQ EQUATE     $DV4ISA          {SAME AS DV4ISA}
      963    001610
      964    001610 $DV4ISX NULL
      965    001610        GOSUB   R_TO_Q          {ROP'S XR TO ARQ}
      966    001611        JMP     $DV4I00

PSEUDO CODE ASSEMBLER FOR COBOL85   FILE=Z8HP.:Z8A6TSI       TUE AUG 26 '97 07:51:54.60  PAGE   37
      ESN       ISN       TEXT

      967    001612
      968    001612 $DV4ISS NULL
      969    001612        FAVOR   LOP,AR
      970    001614        FAVOR   ROP,ARA
      971    001616        ASSIGN  AR(AQ),FREE     {GOING TO CLOBBER BOTH}
      972    001620        GENI    LDQ,LOP         {LOAD LOP}
      973    001622        GENI    DIV,ROP         {DO DIVIDE}
      974    001624
      975    001624 $DV4I__ NULL
      976    001624        GENI    STQ,TO
      977    001626        GENI    STA,ROPND
      978    001630        ASSIGN  AR(Q),USED,TO
      979    001632        ASSIGN  AR(A),USED,ROPND
      980    001634        QUIT
      981    001635        PAGE

PSEUDO CODE ASSEMBLER FOR COBOL85   FILE=Z8HP.:Z8A6TSI       TUE AUG 26 '97 07:51:54.60  PAGE   38
      ESN       ISN       TEXT

      982    001635 USI  START    PEPD                  { - LOP}
      983    001635        WALK    LOP
      984    001637 $USI0  NULL
      985    001637        DSTATE  TYI5,LOP,XABS
      986    001641        JMPDV   XABS,4
      987    001643        JMP     $USIA           {ROP=ARA CONTAINED}
      988    001644        JMP     $USIQ           {ROP=ARQ CONTAINED}
      989    001645        JMP     $USIX           {ROP= XRn CONTAINED}
      990    001646        JMP     $USIS           {ROP=ST  CONTAINED}
      991    001647
      992    001647 $USIC  NULL
      993    001647                                            {CONST}
      994    001647        DECCNT  LOP
      995    001651        QUIT
      996    001652
      997    001652 $USIA  NULL
      998    001652        DECCNT  LOP
      999    001654        ASSIGN  AR(A),FREE      {GOING TO ZAP ARA}
     1000    001656        GENI    (NEG 0)         {NEGATE ARA}
     1001    001660        ASSIGN  AR(A),USED      {ASSIGN ARA AS BEING USED}
     1002    001662        QUIT
     1003    001663
     1004    001663 $USIQ  NULL
     1005    001663        DECCNT  LOP
     1006    001665        ASSIGN  AR(AQ),FREE     {ASSURE BOTH REGS ARE FREE}
     1007    001667        GENI    (LLS 36)        {MOVE ARQ TO ARA}
     1008    001671        GENI    (NEG 0)         {NEGATE ARA}
     1009    001673        ASSIGN  AR(A),USED
     1010    001675        QUIT
     1011    001676
     1012    001676 $USIX  NULL
     1013    001676        GOSUB   L_TO_A          {MOVE XRn TO ARA}
     1014    001677        JMP     $USIQ

PSEUDO CODE ASSEMBLER FOR COBOL85   FILE=Z8HP.:Z8A6TSI       TUE AUG 26 '97 07:51:54.60  PAGE   39
      ESN       ISN       TEXT

     1015    001700
     1016    001700 $USIS  NULL
     1017    001700        FAVOR   LOP,AR
     1018    001702        ASSIGN  AR,FREE         {GET AN ARITHMETIC REGISTER}
     1019    001704        MAPT    AR,OPMOD        {MAP AR ONTO NEXT INSTRUCTION}
     1020    001706        GENI    LCA,LOP         {LOAD ARA OR ARQ WITH ROP COMPLIMENTED}
     1021    001710        ASSIGN  AR,USED         {ASSIGN ARA OR ARQ AS BEING ASSIGNED}
     1022    001712        QUIT
     1023    001713        PAGE

PSEUDO CODE ASSEMBLER FOR COBOL85   FILE=Z8HP.:Z8A6TSI       TUE AUG 26 '97 07:51:54.60  PAGE   40
      ESN       ISN       TEXT

     1024    001713 ORI   START    PEPD                  {LOP + ROP}
     1025    001713        WALK2                   {WALK  EXP FIRST, THEN REFS}
     1026    001715
     1027    001715 $ORI00 NULL
     1028    001715        DSTATE  TYI17,LOPROP,XABS
     1029    001717        JMPDV   XABS,16
     1030    001721        JMP     $ORIAA          {OPTIMIZED ALIAS}
     1031    001722        JMP     $ORIAQ          {LOP=ARA,ROP=ARQ}
     1032    001723        JMP     $ORIAX          {LOP=ARA,ROP=XRn}
     1033    001724        JMP     $ORIAS          {LOP=ARA,ROP=ST}
     1034    001725        JMP     $ORIQA          {LOP=ARQ,ROP=ARA}
     1035    001726        JMP     $ORIQQ          {OPTIMIZED ALIAS}
     1036    001727        JMP     $ORIQX          {LOP=ARQ,ROP=XRn}
     1037    001730        JMP     $ORIQS          {LOP=ARQ,ROP=ST}
     1038    001731        JMP     $ORIXA          {LOP=XRn,ROP=ARA}
     1039    001732        JMP     $ORIXQ          {LOP=XRn,ROP=ARQ}
     1040    001733        JMP     $ORIXX          {LOP=XRn,ROP=XRn}
     1041    001734        JMP     $ORIXS          {LOP=XRn,ROP=ST}
     1042    001735        JMP     $ORISA          {LOP=ST ,ROP=ARA}
     1043    001736        JMP     $ORISQ          {LOP=ST ,ROP=ARQ}
     1044    001737        JMP     $ORISX          {LOP=ST ,ROP=XRn}
     1045    001740        JMP     $ORISS          {LOP=ST ,ROP=ST}
     1046    001741
     1047    001741 $ORICC NULL
     1048    001741                                            {CONST}
     1049    001741        DECCNT  LOP
     1050    001743        DECCNT  ROP
     1051    001745        QUIT
     1052    001746
     1053    001746 $ORIAA NULL
     1054    001746        DECCNT  LOP
     1055    001750        DECCNT  ROP
     1056    001752        ASSIGN  AR(A),USED

PSEUDO CODE ASSEMBLER FOR COBOL85   FILE=Z8HP.:Z8A6TSI       TUE AUG 26 '97 07:51:54.60  PAGE   41
      ESN       ISN       TEXT

     1057    001754        QUIT
     1058    001755
     1059    001755 $ORIAQ NULL
     1060    001755        STORE   ROP             {STORE ROP IN TEMP}
     1061    001757        JMP     $ORIAS          {NEW STATE: LOP=ARA,ROP=ST}
     1062    001760
     1063    001760 $ORIAX NULL
     1064    001760        GOSUB   R_TO_Q          {MOVE ROP'S XR TO ARQ}
     1065    001761        JMP     $ORI00
     1066    001762
     1067    001762 $ORIAS NULL
     1068    001762        DECCNT  LOP             {IMPLICIT REFERENCE TO LOP}
     1069    001764        ASSIGN  AR(A),FREE      {GET THE A REGISTER.}
     1070    001766        GENI    ORA,ROP         {GENERATE FROM THE ROP}
     1071    001770        JMP     $ORI_A          {ASSIGN AR(A) AND QUIT}
     1072    001771
     1073    001771 $ORIQA NULL
     1074    001771        STORE   LOP             {STORE LOP IN TEMP}
     1075    001773        JMP     $ORISA          {NEW STATE: LOP=ST ,ROP=ARA}
     1076    001774
     1077    001774 $ORIQQ NULL
     1078    001774        DECCNT  LOP
     1079    001776        DECCNT  ROP
     1080    002000        ASSIGN  AR(Q),USED
     1081    002002        QUIT
     1082    002003
     1083    002003 $ORIQX NULL
     1084    002003        GOSUB   R_TO_A          {MOVE ROP'S XR TO ARA}
     1085    002004        JMP     $ORI00
     1086    002005
     1087    002005 $ORIQS NULL
     1088    002005        DECCNT  LOP             {IMPLICIT REFERENCE TO LOP}
     1089    002007        ASSIGN  AR(Q),FREE      {FREE AR(Q)}
     1090    002011        GENI    ORQ,ROP         {OR THE ROP}

PSEUDO CODE ASSEMBLER FOR COBOL85   FILE=Z8HP.:Z8A6TSI       TUE AUG 26 '97 07:51:54.60  PAGE   42
      ESN       ISN       TEXT

     1091    002013        JMP     $ORI_Q          {ASSIGN AR(Q) AND QUIT}
     1092    002014
     1093    002014 $ORIXA NULL
     1094    002014        GOSUB   L_TO_Q          {MOVE LOP'S XR INTO ARQ}
     1095    002015        JMP     $ORI00
     1096    002016
     1097    002016 $ORIXQ NULL
     1098    002016        GOSUB   L_TO_A          {MOVE LOP'S XR INTO ARA}
     1099    002017        JMP     $ORI00
     1100    002020
     1101    002020 $ORIXX NULL
     1102    002020        GOSUB   L_TOAR          {MOVE LOP'S XR INTO AN ARITHMETIC REGISTER}
     1103    002021        JMP     $ORI00          {NEW STATE: DETERMINE IT}
     1104    002022
     1105    002022 $ORIXS NULL
     1106    002022        GOSUB   L_TOAR          {MOVE LOP'S INDEX REG TO AN AR}
     1107    002023        JMP     $ORI00          {NEW STATE: DETERMINE IT}
     1108    002024
     1109    002024 $ORISA NULL
     1110    002024        DECCNT  ROP             {IMPLICIT REFERENCE TO ROP}
     1111    002026        ASSIGN  AR(A),FREE      {GET AR(A) READY FOR USE}
     1112    002030        GENI    ORA,LOP         {OR LOP}
     1113    002032        JMP     $ORI_A          {ASSIGN AR(A) AND QUIT}
     1114    002033
     1115    002033 $ORISQ NULL
     1116    002033        DECCNT  ROP             {IMPLICIT REFERENCE OF ROP}
     1117    002035        ASSIGN  AR(Q),FREE      {FREE AR(Q)}
     1118    002037        GENI    ORQ,LOP         {OR LOP}
     1119    002041        JMP     $ORI_Q
     1120    002042
     1121    002042 $ORISX NULL
     1122    002042        GOSUB   R_TOAR          {MOVE LOP'S XR INTO AN AR}
     1123    002043        JMP     $ORI00          {NEW STATE: DETERMINE IT}
     1124    002044

PSEUDO CODE ASSEMBLER FOR COBOL85   FILE=Z8HP.:Z8A6TSI       TUE AUG 26 '97 07:51:54.60  PAGE   43
      ESN       ISN       TEXT

     1125    002044 $ORISS NULL
     1126    002044        FAVOR   LOP,AR          {TELL REGISTER MANAGEMENT ABOUT LOP}
     1127    002046        ASSIGN  AR,FREE         {PICK AN AR, HOPEFULLY THE CHEAPEST}
     1128    002050        MAPT    AR,OPMOD,2      {MAP CHOSEN AR ONTO OPCODE}
     1129    002052        GENI    LDA,LOP         {GENI LDA OR LDQ}
     1130    002054        GENI    ORA,ROP
     1131    002056        ASSIGN  AR,USED         {ASSIGN USED WHICHEVER WE CHOSE}
     1132    002060        QUIT
     1133    002061
     1134    002061 $ORI_A NULL
     1135    002061        ASSIGN  AR(A),USED      {ASSIGN AR(A) TO A USED STATE}
     1136    002063        QUIT
     1137    002064
     1138    002064 $ORI_Q NULL
     1139    002064        ASSIGN  AR(Q),USED      {ASSIGN AR(Q) TO A USED STATE}
     1140    002066        QUIT
     1141    002067        PAGE

PSEUDO CODE ASSEMBLER FOR COBOL85   FILE=Z8HP.:Z8A6TSI       TUE AUG 26 '97 07:51:54.60  PAGE   44
      ESN       ISN       TEXT

     1142    002067 ANDI  START    PEPD                  {LOP + ROP}
     1143    002067        WALK2                   {WALK  EXP FIRST, THEN REFS}
     1144    002071
     1145    002071 $ANDI00 NULL
     1146    002071        DSTATE  TYI17,LOPROP,XABS
     1147    002073        JMPDV   XABS,16
     1148    002075        JMP     $ANDIAA          {OPTIMIZED ALIAS}
     1149    002076        JMP     $ANDIAQ          {LOP=ARA,ROP=ARQ}
     1150    002077        JMP     $ANDIAX          {LOP=ARA,ROP=XRn}
     1151    002100        JMP     $ANDIAS          {LOP=ARA,ROP=ST}
     1152    002101        JMP     $ANDIQA          {LOP=ARQ,ROP=ARA}
     1153    002102        JMP     $ANDIQQ          {OPTIMIZED ALIAS}
     1154    002103        JMP     $ANDIQX          {LOP=ARQ,ROP=XRn}
     1155    002104        JMP     $ANDIQS          {LOP=ARQ,ROP=ST}
     1156    002105        JMP     $ANDIXA          {LOP=XRn,ROP=ARA}
     1157    002106        JMP     $ANDIXQ          {LOP=XRn,ROP=ARQ}
     1158    002107        JMP     $ANDIXX          {LOP=XRn,ROP=XRn}
     1159    002110        JMP     $ANDIXS          {LOP=XRn,ROP=ST}
     1160    002111        JMP     $ANDISA          {LOP=ST ,ROP=ARA}
     1161    002112        JMP     $ANDISQ          {LOP=ST ,ROP=ARQ}
     1162    002113        JMP     $ANDISX          {LOP=ST ,ROP=XRn}
     1163    002114        JMP     $ANDISS          {LOP=ST ,ROP=ST}
     1164    002115
     1165    002115 $ANDICC NULL
     1166    002115                                            {CONST}
     1167    002115        DECCNT  LOP
     1168    002117        DECCNT  ROP
     1169    002121        QUIT
     1170    002122
     1171    002122 $ANDIAA NULL
     1172    002122        DECCNT  LOP
     1173    002124        DECCNT  ROP
     1174    002126        ASSIGN  AR(A),USED

PSEUDO CODE ASSEMBLER FOR COBOL85   FILE=Z8HP.:Z8A6TSI       TUE AUG 26 '97 07:51:54.60  PAGE   45
      ESN       ISN       TEXT

     1175    002130        QUIT
     1176    002131
     1177    002131 $ANDIAQ NULL
     1178    002131        STORE   ROP             {STORE ROP IN TEMP}
     1179    002133        JMP     $ANDIAS          {NEW STATE: LOP=ARA,ROP=ST}
     1180    002134
     1181    002134 $ANDIAX NULL
     1182    002134        GOSUB   R_TO_Q          {MOVE ROP'S XR TO ARQ}
     1183    002135        JMP     $ANDI00
     1184    002136
     1185    002136 $ANDIAS NULL
     1186    002136        DECCNT  LOP             {IMPLICIT REFERENCE TO LOP}
     1187    002140        ASSIGN  AR(A),FREE      {GET THE A REGISTER.}
     1188    002142        GENI    ANA,ROP         {GENERATE FROM THE ROP}
     1189    002144        JMP     $ANDI_A          {ASSIGN AR(A) AND QUIT}
     1190    002145
     1191    002145 $ANDIQA NULL
     1192    002145        STORE   LOP             {STORE LOP IN TEMP}
     1193    002147        JMP     $ANDISA          {NEW STATE: LOP=ST ,ROP=ARA}
     1194    002150
     1195    002150 $ANDIQQ NULL
     1196    002150        DECCNT  LOP
     1197    002152        DECCNT  ROP
     1198    002154        ASSIGN  AR(Q),USED
     1199    002156        QUIT
     1200    002157
     1201    002157 $ANDIQX NULL
     1202    002157        GOSUB   R_TO_A          {MOVE ROP'S XR TO ARA}
     1203    002160        JMP     $ANDI00
     1204    002161
     1205    002161 $ANDIQS NULL
     1206    002161        DECCNT  LOP             {IMPLICIT REFERENCE TO LOP}
     1207    002163        ASSIGN  AR(Q),FREE      {FREE AR(Q)}
     1208    002165        GENI    ANQ,ROP         {ADD THE ROP}

PSEUDO CODE ASSEMBLER FOR COBOL85   FILE=Z8HP.:Z8A6TSI       TUE AUG 26 '97 07:51:54.60  PAGE   46
      ESN       ISN       TEXT

     1209    002167        JMP     $ANDI_Q          {ASSIGN AR(Q) AND QUIT}
     1210    002170
     1211    002170 $ANDIXA NULL
     1212    002170        GOSUB   L_TO_Q          {MOVE LOP'S XR INTO ARQ}
     1213    002171        JMP     $ANDI00
     1214    002172
     1215    002172 $ANDIXQ NULL
     1216    002172        GOSUB   L_TO_A          {MOVE LOP'S XR INTO ARA}
     1217    002173        JMP     $ANDI00
     1218    002174
     1219    002174 $ANDIXX NULL
     1220    002174        GOSUB   L_TOAR          {MOVE LOP'S XR INTO AN ARITH REGISTER}
     1221    002175        JMP     $ANDI00          {NEW STATE: DETERMINE IT}
     1222    002176
     1223    002176 $ANDIXS NULL
     1224    002176        GOSUB   L_TOAR          {MOVE LOP'S INDEX REG TO AN AR}
     1225    002177        JMP     $ANDI00          {NEW STATE: DETERMINE IT}
     1226    002200
     1227    002200 $ANDISA NULL
     1228    002200        DECCNT  ROP             {IMPLICIT REFERENCE TO ROP}
     1229    002202        ASSIGN  AR(A),FREE      {GET AR(A) READY FOR USE}
     1230    002204        GENI    ANA,LOP         {ADD LOP}
     1231    002206        JMP     $ANDI_A          {ASSIGN AR(A) AND QUIT}
     1232    002207
     1233    002207 $ANDISQ NULL
     1234    002207        DECCNT  ROP             {IMPLICIT REFERENCE OF ROP}
     1235    002211        ASSIGN  AR(Q),FREE      {FREE AR(Q)}
     1236    002213        GENI    ANQ,LOP         {ADD LOP}
     1237    002215        JMP     $ANDI_Q
     1238    002216
     1239    002216 $ANDISX NULL
     1240    002216        GOSUB   R_TOAR          {MOVE LOP'S XR INTO AN AR}
     1241    002217        JMP     $ANDI00          {NEW STATE: DETERMINE IT}
     1242    002220

PSEUDO CODE ASSEMBLER FOR COBOL85   FILE=Z8HP.:Z8A6TSI       TUE AUG 26 '97 07:51:54.60  PAGE   47
      ESN       ISN       TEXT

     1243    002220 $ANDISS NULL
     1244    002220        FAVOR   LOP,AR          {TELL REGISTER MANAGEMENT ABOUT LOP}
     1245    002222        ASSIGN  AR,FREE         {PICK AN AR, HOPEFULLY THE CHEAPEST}
     1246    002224        MAPT    AR,OPMOD,2      {MAP CHOSEN AR ONTO OPCODE}
     1247    002226        GENI    LDA,LOP         {GENI LDA OR LDQ}
     1248    002230        GENI    ANA,ROP
     1249    002232        ASSIGN  AR,USED         {ASSIGN USED WHICHEVER WE CHOSE}
     1250    002234        QUIT
     1251    002235
     1252    002235 $ANDI_A NULL
     1253    002235        ASSIGN  AR(A),USED      {ASSIGN AR(A) TO A USED STATE}
     1254    002237        QUIT
     1255    002240
     1256    002240 $ANDI_Q NULL
     1257    002240        ASSIGN  AR(Q),USED      {ASSIGN AR(Q) TO A USED STATE}
     1258    002242        QUIT
     1259    002243        PAGE

PSEUDO CODE ASSEMBLER FOR COBOL85   FILE=Z8HP.:Z8A6TSI       TUE AUG 26 '97 07:51:54.60  PAGE   48
      ESN       ISN       TEXT

     1260    002243
     1261    002243 EDEP  START   DEP
     1262    002243        ASSIGN  PR,FREE
     1263    002245        MAPT    PR,OPMOD
     1264    002247        GENI    EPPR0,LOP
     1265    002251        ASSIGN  PR,USED
     1266    002253        QUIT
     1267    002254
     1268    002254 SDEP  START   DEP
     1269    002254        GENI    ZERO,SOPND
     1270    002256        QUIT
     1271    002257
     1272    002257 FDEP  START   DEP
     1273    002257        GENI    (EAX1 0)
     1274    002261        QUIT
     1275    002262        PAGE

PSEUDO CODE ASSEMBLER FOR COBOL85   FILE=Z8HP.:Z8A6TSI       TUE AUG 26 '97 07:51:54.60  PAGE   49
      ESN       ISN       TEXT

     1276    002262 BASE  START    PEPD
     1277    002262        WALK2
     1278    002264        REF_
     1279    002266        QUIT
     1280    002267        PAGE

PSEUDO CODE ASSEMBLER FOR COBOL85   FILE=Z8HP.:Z8A6TSI       TUE AUG 26 '97 07:51:54.60  PAGE   50
      ESN       ISN       TEXT

     1281    002267 MVII  START    PEPD                  {MOVE INTEGER TO INTEGER}
     1282    002267        WALK2                   {WALK  NON-EXPRESSION LAST}
     1283    002271
     1284    002271        ASSIGN  IND,FREE
     1285    002273        CASE
     1286    002275 $MVII00 NULL
     1287    002275        DSTATE  TYI16,LOPROP,XABS
     1288    002277        JMPDV   XABS,15
     1289    002301        JMP     $MVIIAA          {ALIAS = PRIME, NO CODE}
     1290    002302        JMP     $MVIISQ          {LOP=ARA,ROP=ARQ}
     1291    002303        JMP     $MVIISX          {LOP=ARA,ROP=XRn}
     1292    002304        JMP     $MVIISS          {LOP=ARA,ROP=ST}
     1293    002305        JMP     $MVIISA          {LOP=ARQ,ROP=ARA}
     1294    002306        JMP     $MVIIQQ          {ALIAS = PRIME, NO CODE}
     1295    002307        JMP     $MVIISX          {LOP=ARQ,ROP=XRn}
     1296    002310        JMP     $MVIISS          {LOP=ARQ,ROP=ST}
     1297    002311        JMP     $MVIISA          {LOP=XRn,ROP=ARA}
     1298    002312        JMP     $MVIISQ          {LOP=XRn,ROP=ARQ}
     1299    002313        JMP     $MVIISX          {LOP=XRn,ROP=XRn}
     1300    002314        JMP     $MVIISS          {LOP=XRn,ROP=ST}
     1301    002315        JMP     $MVIISA          {LOP=ST ,ROP=ARA}
     1302    002316        JMP     $MVIISQ          {LOP=ST ,ROP=ARQ}
     1303    002317        JMP     $MVIISX          {LOP=ST ,ROP=XRn}
     1304    002320        JMP     $MVIISS          {LOP=ST ,ROP=ST}
     1305    002321
     1306    002321 $MVIIAA NULL
     1307    002321 $MVIIQQ NULL
     1308    002321        DECCNT  LOP             {NO CODE, BUT MUST REFERENCE}
     1309    002323        DECCNT  ROP             {""  ""        ""     ""}
     1310    002325        QUIT
     1311    002326
     1312    002326 $MVIISA NULL
     1313    002326        DECCNT  ROP             {IMPLICIT REFERENCE TO ROP}

PSEUDO CODE ASSEMBLER FOR COBOL85   FILE=Z8HP.:Z8A6TSI       TUE AUG 26 '97 07:51:54.60  PAGE   51
      ESN       ISN       TEXT

     1314    002330        GENI    STA,LOP         {GENERATE FROM ROP}
     1315    002332        ASSIGN  AR(A),USED
     1316    002334        QUIT
     1317    002335
     1318    002335 $MVIISQ NULL
     1319    002335        DECCNT  ROP             {IMPLICIT REFERENCE TO ROP}
     1320    002337        GENI    STQ,LOP         {GENERATE FROM ROP}
     1321    002341        ASSIGN  AR(Q),USED
     1322    002343        QUIT
     1323    002344
     1324    002344 $MVIISX NULL
     1325    002344        GOSUB   R_TOAR          {CANT STORE XR DIRECTLY}
     1326    002345        JMP     $MVII00          {WHAT IS THE STATE?}
     1327    002346
     1328    002346 $MVIISS NULL
     1329    002346        IFITIS  0,,$MVIIOK
     1330    002350        GENI    STZ,LOP
     1331    002352        DECCNT  ROP
     1332    002354        QUIT
     1333    002355
     1334    002355 $MVIIOK NULL
     1335    002355        FAVOR   ROP,AR
     1336    002357        ASSIGN  AR,FREE         {GET A REGISTER, A OR Q}
     1337    002361        MAPT    AR,OPMOD,2      {MAP LAST FREED ONTO NEXT INST}
     1338    002363        GENI    LDA,ROP         {GENERATE FROM ROP}
     1339    002365        GENI    STA,LOP         {STORE}
     1340    002367        ASSIGN  AR,USED
     1341    002371        QUIT
     1342    002372        PAGE

PSEUDO CODE ASSEMBLER FOR COBOL85   FILE=Z8HP.:Z8A6TSI       TUE AUG 26 '97 07:51:54.60  PAGE   52
      ESN       ISN       TEXT

     1343    002372 CCOSU START    PEPD
     1344    002372        CASE
     1345    002374        JMPDV   XABS,1
     1346    002376        QUIT                    {0 halt only}
     1347    002377        STORE   ROPND           {1 store and halt}
     1348    002401        QUIT
     1349    002402        PAGE

PSEUDO CODE ASSEMBLER FOR COBOL85   FILE=Z8HP.:Z8A6TSI       TUE AUG 26 '97 07:51:54.60  PAGE   53
      ESN       ISN       TEXT

     1350    002402 EVALP START    PEPD
     1351    002402        CASE                    {Signal compilation error}
     1352    002404        QUIT                    {1 halt only}
     1353    002405        PAGE

PSEUDO CODE ASSEMBLER FOR COBOL85   FILE=Z8HP.:Z8A6TSI       TUE AUG 26 '97 07:51:54.60  PAGE   54
      ESN       ISN       TEXT

     1354    002405 INDEX START    PEPD
     1355    002405        WALK2
     1356    002407        ALLOT   NEXT,TYI,XOPND,4,9
     1357    002411        CASE    JABS,IOPND,LOPND,ROPND
     1358    002413
     1359    002413        JMPDV   JABS,3
     1360    002415        JMP     $INDEX1
     1361    002416        JMP     $INDEX2
     1362    002417        JMP     $INDEXM          {More than 3}
     1363    002420
     1364    002420 $INDEX1 NULL
     1365    002420        DEFER
     1366    002422        GENI    (SCM (0,0,0,N),(0,0,0,N))
     1367    002424        GENI    ADSC9,ROP
     1368    002426        GENI    ADSC9,LOP
     1369    002430        WRAPUP
     1370    002432        GENI    ARG,XOPND
     1371    002434        ATTACH  XOPND
     1372    002436        QUIT
     1373    002437
     1374    002437 $INDEX2 NULL
     1375    002437        DEFER
     1376    002441        GENI    (SCD (0,0,0,N),(0,0,0,N))
     1377    002443        GENI    ADSC9,ROP
     1378    002445        GENI    ADSC9,LOP
     1379    002447        WRAPUP
     1380    002451        GENI    ARG,XOPND
     1381    002453        INCCNT  XOPND                          {/*#31324*/}
     1382    002455        GENI    (TTF 2,IC)                     {/*#31324*/}
     1383    002457        GENI    AOS,XOPND                      {/*#31324*/}
     1384    002461        ATTACH  XOPND                          {/*#31324*/}
     1385    002463        QUIT
     1386    002464

PSEUDO CODE ASSEMBLER FOR COBOL85   FILE=Z8HP.:Z8A6TSI       TUE AUG 26 '97 07:51:54.60  PAGE   55
      ESN       ISN       TEXT

     1387    002464 $INDEXM NULL
     1388    002464        ADDRESS  LOP,PR(0)
     1389    002466        ADDRESS  ROP,PR(1)
     1390    002470
     1391    002470        WALK    IOPND
     1392    002472        WALK    LOPND
     1393    002474        WALK    ROPND
     1394    002476
     1395    002476 $INDEX0 NULL
     1396    002476        DSTATE  TYI4,LOPND,XABS
     1397    002500        JMPDV   XABS,3
     1398    002502        JMP     $INDEXA
     1399    002503        JMP     $INDEXQ
     1400    002504        JMP     $INDEXX
     1401    002505        JMP     $INDEXS
     1402    002506
     1403    002506 $INDEXA NULL
     1404    002506        ASSIGN AR(Q),FREE
     1405    002510        DSTATE  TYI5,IOPND,XABS {/*#37128*/}
     1406    002512        JMPDV   XABS,4
     1407    002514        JMP     $I_IN_MEM       {In A - impossible}
     1408    002515        JMP     $I_IN_MEM       {In Q - impossible}
     1409    002516        JMP     $I_IN_X         {In XRn}
     1410    002517        JMP     $I_IN_MEM
     1411    002520
     1412    002520 $I_IN_MEM NULL
     1413    002520        GENI    LCQ,IOPND
     1414    002522        JMP     $I_DONE
     1415    002523 $I_IN_X NULL
     1416    002523        MAPT    XR(IOPND),TAGMOD
     1417    002525        GENI    (EAQ -1,N)
     1418    002527        GENI    (ERQ -1,DU)
     1419    002531        GENI    (QRS 18)
     1420    002533        DECCNT  IOPND

PSEUDO CODE ASSEMBLER FOR COBOL85   FILE=Z8HP.:Z8A6TSI       TUE AUG 26 '97 07:51:54.60  PAGE   56
      ESN       ISN       TEXT

     1421    002535 $I_DONE NULL
     1422    002535        GENI    (TPL 10,IC)
     1423    002537        GENI    STQ,XOPND
     1424    002541        GENI    (LCQ 1,DL)
     1425    002543        GENI    (ADQ 1,DL)
     1426    002545        DEFER
     1427    002547        GENI    (CMPC (0,0,0,N),(0,0,0,N))
     1428    002551        MAPT    PR(0),TAGMOD
     1429    002553        MAPT    AR(A),LENMOD
     1430    002555        GENI    (ZERO 0,0)
     1431    002557        MAPT    PR(1),TAGMOD
     1432    002561        MAPT    AR(A),LENMOD
     1433    002563        MAPT    AR(Q),TAGMOD
     1434    002565        GENI    (ZERO 0,0)
     1435    002567        WRAPUP
     1436    002571
     1437    002571        DSTATE  TYI5,ROPND,XABS {/*#37128*/}
     1438    002573        JMPDV   XABS,4
     1439    002575        JMP     $Q_IN_MEM       {In A - impossible}
     1440    002576        JMP     $Q_IN_MEM       {In Q - impossible}
     1441    002577        JMP     $Q_IN_X         {In XRn}
     1442    002600        JMP     $Q_IN_MEM
     1443    002601
     1444    002601 $Q_IN_MEM NULL
     1445    002601        GENI    (TZE 4,IC)      {*FINI}
     1446    002603        GENI    AOS,XOPND
     1447    002605        GENI    (TNZ -6,IC)     {*LOOP}
     1448    002607        GENI    LDQ,ROPND
     1449    002611        JMP     $Q_DONE
     1450    002612 $Q_IN_X NULL
     1451    002612        GENI    (TZE 5,IC)      {*FINI}
     1452    002614        GENI    AOS,XOPND
     1453    002616        GENI    (TNZ -6,IC)     {*LOOP}
     1454    002620        MAPT    XR(ROPND),TAGMOD

PSEUDO CODE ASSEMBLER FOR COBOL85   FILE=Z8HP.:Z8A6TSI       TUE AUG 26 '97 07:51:54.60  PAGE   57
      ESN       ISN       TEXT

     1455    002622        GENI    (EAQ 0,N)
     1456    002624        GENI    (QRS 18)
     1457    002626        DECCNT  ROPND
     1458    002630 $Q_DONE NULL
     1459    002630        ASSIGN  AR(Q),USED
     1460    002632        DECCNT  LOP
     1461    002634        DECCNT  ROP
     1462    002636        DECCNT  LOPND
     1463    002640        QUIT
     1464    002641
     1465    002641 $INDEXQ NULL
     1466    002641        ASSIGN  AR(A),FREE
     1467    002643        DSTATE  TYI5,IOPND,XABS {/*#37128*/}
     1468    002645        JMPDV   XABS,4
     1469    002647        JMP     $J_IN_MEM       {In A - impossible}
     1470    002650        JMP     $J_IN_MEM       {In Q - impossible}
     1471    002651        JMP     $J_IN_X         {In XRn}
     1472    002652        JMP     $J_IN_MEM
     1473    002653
     1474    002653 $J_IN_MEM NULL
     1475    002653        GENI    LCA,IOPND
     1476    002655        JMP     $J_DONE
     1477    002656 $J_IN_X NULL
     1478    002656        MAPT    XR(IOPND),TAGMOD
     1479    002660        GENI    (EAA 0,N)
     1480    002662        GENI    (NEG 0)
     1481    002664        GENI    (ARS 18)
     1482    002666        DECCNT  IOPND
     1483    002670 $J_DONE NULL
     1484    002670        GENI    STA,XOPND
     1485    002672        GENI    (LCA 1,DL)
     1486    002674        GENI    (ADA 1,DL)
     1487    002676        DEFER
     1488    002700        GENI    (CMPC (0,0,0,N),(0,0,0,N))

PSEUDO CODE ASSEMBLER FOR COBOL85   FILE=Z8HP.:Z8A6TSI       TUE AUG 26 '97 07:51:54.60  PAGE   58
      ESN       ISN       TEXT

     1489    002702        MAPT    PR(1),TAGMOD
     1490    002704        MAPT    AR(A),TAGMOD
     1491    002706        MAPT    AR(Q),LENMOD
     1492    002710        GENI    (ZERO 0,0)
     1493    002712        MAPT    PR(0),TAGMOD
     1494    002714        MAPT    AR(Q),LENMOD
     1495    002716        GENI    (ZERO 0,0)
     1496    002720        WRAPUP
     1497    002722
     1498    002722        DSTATE  TYI5,ROPND,XABS {/*#37128*/}
     1499    002724        JMPDV   XABS,4
     1500    002726        JMP     $A_IN_MEM       {In A - impossible}
     1501    002727        JMP     $A_IN_MEM       {In Q - impossible}
     1502    002730        JMP     $A_IN_X         {In XRn}
     1503    002731        JMP     $A_IN_MEM
     1504    002732
     1505    002732 $A_IN_MEM NULL
     1506    002732        GENI    (TZE 4,IC)      {*FINI}
     1507    002734        GENI    AOS,XOPND
     1508    002736        GENI    (TNZ -6,IC)     {*LOOP}
     1509    002740        GENI    LDA,ROPND
     1510    002742        JMP     $A_DONE
     1511    002743 $A_IN_X NULL
     1512    002743        GENI    (TZE 5,IC)      {*FINI}
     1513    002745        GENI    AOS,XOPND
     1514    002747        GENI    (TNZ -6,IC)     {*LOOP}
     1515    002751        MAPT    XR(ROPND),TAGMOD
     1516    002753        GENI    (EAA 0,N)
     1517    002755        GENI    (ARS 18)
     1518    002757        DECCNT  ROPND
     1519    002761 $A_DONE NULL
     1520    002761        ASSIGN  AR(A),USED
     1521    002763        DECCNT  LOP
     1522    002765        DECCNT  ROP

PSEUDO CODE ASSEMBLER FOR COBOL85   FILE=Z8HP.:Z8A6TSI       TUE AUG 26 '97 07:51:54.60  PAGE   59
      ESN       ISN       TEXT

     1523    002767        DECCNT  LOPND
     1524    002771        QUIT
     1525    002772
     1526    002772 $INDEXX NULL
     1527    002772        QUIT
     1528    002773
     1529    002773 $INDEXS NULL
     1530    002773        FAVOR   LOPND,AR
     1531    002775        ASSIGN  AR,FREE
     1532    002777        MAPT    AR,OPMOD
     1533    003001        INCCNT  LOPND
     1534    003003        GENI    LDA,LOPND
     1535    003005        ASSIGN  AR,USED,LOPND
     1536    003007        JMP     $INDEX0
     1537    003010
     1538    003010
     1539    003010        PAGE

PSEUDO CODE ASSEMBLER FOR COBOL85   FILE=Z8HP.:Z8A6TSI       TUE AUG 26 '97 07:51:54.60  PAGE   60
      ESN       ISN       TEXT

     1540    003010 SEARCH START    PEPD
     1541    003010        WALK3
     1542    003012
     1543    003012        CASE    TABS,TOPND,RABS,ROPND
     1544    003014
     1545    003014        INCCNT  TO,2
     1546    003016
     1547    003016        DEFER
     1548    003020        GENI    (TCT)
     1549    003022        GENI    ADSC9,LOP       {String}
     1550    003024        WRAPUP
     1551    003026
     1552    003026        CASE    GABS            {Table operand may need offset}
     1553    003030        GENI    ARG,ROP         {Table}
     1554    003032        GENI    ARG,TO          {Position}
     1555    003034
     1556    003034        ASSIGN  AR(A),FREE
     1557    003036        LIB     OP_TCT_MASK,ZOPND  {Library const '00017777777'}
     1558    003040        WALK    ZOPND
     1559    003042
     1560    003042        JMPDV   TABS,1
     1561    003044        JMP     $TABV           {Tableval was specified!}
     1562    003045        JMP     $NTABV          {Tableval was not specified.}
     1563    003046
     1564    003046 $TABV  NULL
     1565    003046        WALK    TOPND
     1566    003050        GENI    LDA,TO
     1567    003052        MOVE    OCTAL(40),PCOM(GABS)
     1568    003054        GENI    (STBA 0,0),TOPND    {Octal 40 tag}
     1569    003056        GENI    ANA,ZOPND
     1570    003060        GENI    STA,TO
     1571    003062        JMP     $SRCH1
     1572    003063

PSEUDO CODE ASSEMBLER FOR COBOL85   FILE=Z8HP.:Z8A6TSI       TUE AUG 26 '97 07:51:54.60  PAGE   61
      ESN       ISN       TEXT

     1573    003063 $NTABV NULL
     1574    003063        GENI    LDA,TO
     1575    003065        GENI    ANA,ZOPND      {Position}
     1576    003067        GENI    STA,TO
     1577    003071
     1578    003071 $SRCH1 NULL
     1579    003071
     1580    003071        ASSIGN  AR(A),USED,TO
     1581    003073
     1582    003073        JMPDV   RABS,1          {Altret specified?}
     1583    003075        JMP     $ALT
     1584    003076        JMP     $NALT           {No altret}
     1585    003077
     1586    003077 $ALT   NULL
     1587    003077        GENI    TTN,ROPND       {Tra on tally on to label}
     1588    003101
     1589    003101 $NALT  NULL
     1590    003101        QUIT
     1591    003102        PAGE

PSEUDO CODE ASSEMBLER FOR COBOL85   FILE=Z8HP.:Z8A6TSI       TUE AUG 26 '97 07:51:54.60  PAGE   62
      ESN       ISN       TEXT

     1592    003102 SSOP  START    PEPD                  SUBSCRIPT
     1593    003102        CASE
     1594    003104        WALK    LOP
     1595    003106        REF_
     1596    003110        DECCNT  LOP
     1597    003112        CASE                    {Handle excessive offsets & tag ROP}
     1598    003114        QUIT
     1599    003115
     1600    003115 REFMOD START   PEPD           {/*#28637*/}
     1601    003115 SIZ    START   PEPD
     1602    003115        WALK    LOP
     1603    003117        CASE                    {Tag the ROP}
     1604    003121        REF_
     1605    003123        DECCNT  LOP
     1606    003125        QUIT
     1607    003126
     1608    003126 JDEP  START   DEP
     1609    003126        INCCNT  *,1
     1610    003130        ASSIGN  AR,FREE         {PICK AR (MAY MOVE TO XR)}
     1611    003132        MAPT    AR,OPMOD        {MAP ONTO NEXT INSTRUCTION}
     1612    003134        GENI    LDA,*
     1613    003136        ASSIGN  AR,USED         {MARK IT AS USED}
     1614    003140        QUIT
     1615    003141
     1616    003141 KDEP  START   DEP
     1617    003141        INCCNT  *,1
     1618    003143        ASSIGN  XR,FREE         {GET AN INDEX REGISTER}
     1619    003145        MAPT    XR,OPMOD        {MAP IT ONTO NEXT INSTRUCTION}
     1620    003147        GENI    LXL0,*
     1621    003151        ASSIGN  XR,USED
     1622    003153        QUIT
     1623    003154        PAGE

PSEUDO CODE ASSEMBLER FOR COBOL85   FILE=Z8HP.:Z8A6TSI       TUE AUG 26 '97 07:51:54.60  PAGE   63
      ESN       ISN       TEXT

     1624    003154 MVDDR START    PEPD
     1625    003154        MOVE    OCTAL(000200000000),PCOM(RABS)  {RD bit on}
     1626    003156        JMP     MVDD1
     1627    003157
     1628    003157 MVDD  START    PEPD
     1629    003157        MOVE    OCTAL(000000000000),PCOM(RABS)
     1630    003161 MVDD1  NULL
     1631    003161        WALK    ROP
     1632    003163        WALK    LOP
     1633    003165        WALK    ROP             {In case no longer evaluated}
     1634    003167        CASE    LABS,ROPND,XABS
     1635    003171        GOSUB   CHKLEN          {MAKE SURE ROP NOT OF LENGTH 0}
     1636    003172        MOVE    PCOM(RABS),PCOM(GABS)
     1637    003174        DEFER                   {BUFFER EIS INSTRUCTION}
     1638    003176        GENI    (MVN (0,0,0,N),(0,0,0,N))
     1639    003200        GENI    NDSC9,ROP       {FROM}
     1640    003202        GENI    NDSC9,LOP       {TO}
     1641    003204        WRAPUP                  {SPIT OUT WHOLE INSTRUCTION}
     1642    003206        JMPDV   LABS,1
     1643    003210        JMP     $LCONST         {LENGTH IS CONSTANT}
     1644    003211        DEFLAB  WOPND
     1645    003213 $LCONST NULL
     1646    003213        ASSIGN  AR(LOP),FREE    {MAKE SURE NOT MARKED AS IN REGISTER}
     1647    003215        QUIT
     1648    003216        PAGE

PSEUDO CODE ASSEMBLER FOR COBOL85   FILE=Z8HP.:Z8A6TSI       TUE AUG 26 '97 07:51:54.60  PAGE   64
      ESN       ISN       TEXT

     1649    003216 MVOOR  START   PEPD
     1650    003216        MOVE    OCTAL(000200000000),PCOM(GABS)   {RD bit on}
     1651    003220
     1652    003220 MVOO   START   PEPD
     1653    003220        WALK    ROP
     1654    003222        WALK    LOP
     1655    003224        WALK    ROP             {In case no longer evaluated}
     1656    003226        CASE    IABS
     1657    003230        ASSIGN  IND,FREE
     1658    003232        JMPDV   IABS,2
     1659    003234        JMP     $EBCDIC
     1660    003235        JMP     $ASCII
     1661    003236        AD      OCTAL(200000000000),PCOM(GABS)  {Set NS bit}
     1662    003240        JMP     $EBCDIC
     1663    003241 $ASCII NULL
     1664    003241        AD      OCTAL(400000000000),PCOM(GABS)  {Set CS bit}
     1665    003243 $EBCDIC NULL
     1666    003243        DEFER                   {BUFFER EIS INSTRUCTION}
     1667    003245        GENI    (MVNX)
     1668    003247        GENI    NDSC9,ROP       {FROM}
     1669    003251        GENI    NDSC9,LOP       {TO}
     1670    003253        WRAPUP                  {SPIT OUT WHOLE INSTRUCTION}
     1671    003255        ASSIGN  AR(LOP),FREE    {MAKE SURE NOT MARKED AS IN REGISTER}
     1672    003257        QUIT
     1673    003260        PAGE

PSEUDO CODE ASSEMBLER FOR COBOL85   FILE=Z8HP.:Z8A6TSI       TUE AUG 26 '97 07:51:54.60  PAGE   65
      ESN       ISN       TEXT

     1674    003260 MVEAN START    PEPD
     1675    003260        WALK3
     1676    003262        CASE
     1677    003264
     1678    003264        DEFER
     1679    003266        GENI    (MVE ())
     1680    003270        GENI    ADSC9,LOP       {Sending item}
     1681    003272        GENI    ADSC9,ROP       {MOP string}
     1682    003274        GENI    ADSC9,TO        {Receiving item}
     1683    003276        WRAPUP
     1684    003300        QUIT
     1685    003301        PAGE

PSEUDO CODE ASSEMBLER FOR COBOL85   FILE=Z8HP.:Z8A6TSI       TUE AUG 26 '97 07:51:54.60  PAGE   66
      ESN       ISN       TEXT

     1686    003301 MVEDD START    PEPD
     1687    003301        WALK3
     1688    003303        CASE
     1689    003305
     1690    003305        DEFER
     1691    003307        GENI    (MVNE )
     1692    003311        GENI    NDSC9,LOP       {Sending item}
     1693    003313        GENI    ADSC9,ROP       {MOP string}
     1694    003315        GENI    ADSC9,TO        {Receiving item}
     1695    003317        WRAPUP
     1696    003321        QUIT
     1697    003322        PAGE

PSEUDO CODE ASSEMBLER FOR COBOL85   FILE=Z8HP.:Z8A6TSI       TUE AUG 26 '97 07:51:54.60  PAGE   67
      ESN       ISN       TEXT

     1698    003322 ALTER START    PEPD
     1699    003322        WALK    LOP
     1700    003324
     1701    003324        ASSIGN  XR,FREE
     1702    003326        MAPT    XR,OPMOD,2
     1703    003330        GENI    EAX0,ROP
     1704    003332        GENI    STX0,LOP
     1705    003334        QUIT
     1706    003335        PAGE

PSEUDO CODE ASSEMBLER FOR COBOL85   FILE=Z8HP.:Z8A6TSI       TUE AUG 26 '97 07:51:54.60  PAGE   68
      ESN       ISN       TEXT

     1707    003335 GO    START    PEPD
     1708    003335        WALK    ROP
     1709    003337        WALK    LOP
     1710    003341
     1711    003341        CASE    XABS
     1712    003343
     1713    003343        DSTATE  IND2,ROP,YABS
     1714    003345        JMPDV   YABS,2
     1715    003347        JMP     $GOIND           {INDICATOR CONTAINED}
     1716    003350        JMP     $GO_000
     1717    003351
     1718    003351 $GOST  NULL
     1719    003351        ASSIGN  IND,FREE
     1720    003353        ASSIGN  IND,USED,ROP
     1721    003355        GENI    LDI,ROP
     1722    003357        JMP     $GO_000
     1723    003360
     1724    003360 $GOIND NULL
     1725    003360        DECCNT  ROP
     1726    003362        STORE   ROP
     1727    003364        ASSIGN  IND,FREE
     1728    003366
     1729    003366 $GO_000 NULL
     1730    003366
     1731    003366        JMPDV   XABS,26
     1732    003370        JMP     $GO_0           {UNCONDITIONAL}
     1733    003371        JMP     $GO_1           {LESS THAN (ARITHMETIC)}
     1734    003372        JMP     $GO_2           {LESS THAN (ALPHANUMERIC)}
     1735    003373        JMP     $GO_3           {GREATER THAN (ARITHMETIC)}
     1736    003374        JMP     $GO_4           {GREATER THAN (ALPHANUMERIC)}
     1737    003375        JMP     $GO_5           {LESS THAN OR EQUAL TO (ARITHMETIC)}
     1738    003376        JMP     $GO_6           {LESS THAN OR EQUAL TO (ALPHANUMERIC)}
     1739    003377        JMP     $GO_7           {GREATER THAN OR EQUAL TO (ARITHMETIC)}

PSEUDO CODE ASSEMBLER FOR COBOL85   FILE=Z8HP.:Z8A6TSI       TUE AUG 26 '97 07:51:54.60  PAGE   69
      ESN       ISN       TEXT

     1740    003400        JMP     $GO_8           {GREATER THAN OR EQUAL TO (ALPHANUMERIC)}
     1741    003401        JMP     $GO_9           {EQUAL TO}
     1742    003402        JMP     $GO_10          {NOT EQUAL TO}
     1743    003403        JMP     $GO_11          {ON CLASS}
     1744    003404        JMP     $GO_12          {NOT CLASS}
     1745    003405        JMP     $GO_13          {OVERFLOW}
     1746    003406        JMP     $GO_14          {FALSE_FLAG}
     1747    003407        JMP     $GO_15          {MULTIPLY OVERFLOW}
     1748    003410        JMP     $GO_16          {ALTERED GO TO}
     1749    003411        JMP     $GO_17          {Perform BY clause check}
     1750    003412        JMP     $GO_18          {Not used by Generator}
     1751    003413        JMP     $GO_19          {Turn off overflow}
     1752    003414        JMP     $GO_20          {Turn off floating overflow}
     1753    003415        JMP     $GO_21          {Go if switch on}
     1754    003416        JMP     $GO_22          {Go if switch off}
     1755    003417        JMP     $GO_23          {Less than (logical)}
     1756    003420        JMP     $GO_24          {Save IC and Go}
     1757    003421        JMP     $GO_25          { GO FLOAT OVERFLOW  }
     1758    003422        JMP     $GO_26          { GO CROSS SEGMENT }
     1759    003423
     1760    003423 $GO_0  GENI    TRA,LOP
     1761    003425        QUIT
     1762    003426
     1763    003426 $GO_1  GENI    TMI,LOP
     1764    003430        QUIT
     1765    003431
     1766    003431 $GO_2  GENI    TNC,LOP
     1767    003433        QUIT
     1768    003434
     1769    003434 $GO_3  GENI    TPNZ,LOP
     1770    003436        QUIT
     1771    003437
     1772    003437 $GO_4  GENI    (TZE 2,IC)
     1773    003441        GENI    TRC,LOP

PSEUDO CODE ASSEMBLER FOR COBOL85   FILE=Z8HP.:Z8A6TSI       TUE AUG 26 '97 07:51:54.60  PAGE   70
      ESN       ISN       TEXT

     1774    003443        QUIT
     1775    003444
     1776    003444 $GO_5  GENI    TMOZ,LOP
     1777    003446        QUIT
     1778    003447
     1779    003447 $GO_6  GENI    TZE,LOP
     1780    003451        GENI    TNC,LOP
     1781    003453        QUIT
     1782    003454
     1783    003454 $GO_7  GENI    TPL,LOP
     1784    003456        QUIT
     1785    003457
     1786    003457 $GO_8  GENI    TRC,LOP
     1787    003461        QUIT
     1788    003462
     1789    003462 $GO_9  GENI    TZE,LOP
     1790    003464        QUIT
     1791    003465
     1792    003465 $GO_10 GENI    TNZ,LOP
     1793    003467        QUIT
     1794    003470
     1795    003470 $GO_11 NULL
     1796    003470        GENI    TTN,LOP
     1797    003472        QUIT
     1798    003473
     1799    003473 $GO_12 NULL
     1800    003473        GENI    TTF,LOP
     1801    003475        QUIT
     1802    003476
     1803    003476 $GO_13 GENI    TOV,LOP
     1804    003500        QUIT
     1805    003501
     1806    003501 $GO_14 NULL
     1807    003501

PSEUDO CODE ASSEMBLER FOR COBOL85   FILE=Z8HP.:Z8A6TSI       TUE AUG 26 '97 07:51:54.60  PAGE   71
      ESN       ISN       TEXT

     1808    003501 $GO_15 NULL
     1809    003501        ASSIGN  AR(Q),FREE
     1810    003503        GENI    (QRS 35)
     1811    003505        ALLOT   NEXT,TYI,XOPND,4,9
     1812    003507
     1813    003507        GENI    STA,XOPND
     1814    003511        GENI    CMPQ,XOPND
     1815    003513        GENI    TNZ,LOP
     1816    003515        QUIT
     1817    003516
     1818    003516 $GO_16 NULL
     1819    003516        ASSIGN  XR(0),FREE
     1820    003520        GENI    LDX0,LOP
     1821    003522        GENI    (TRA 0,0)
     1822    003524        QUIT
     1823    003525
     1824    003525 $GO_17 NULL
     1825    003525        GENI    TTN,LOP
     1826    003527        QUIT
     1827    003530
     1828    003530 $GO_18 NULL
     1829    003530        GENI    TTF,LOP
     1830    003532        QUIT
     1831    003533
     1832    003533
     1833    003533 $GO_19 NULL                     { GO FLOAT OVERFLOW OFF }
     1834    003533        GENI    (TEU 1,IC)
     1835    003535        GENI    (TEO 1,IC)
     1836    003537        GENI    (TOV 1,IC)
     1837    003541        QUIT
     1838    003542
     1839    003542 $GO_20 NULL
     1840    003542        GENI    (TOV 1,IC)
     1841    003544        QUIT

PSEUDO CODE ASSEMBLER FOR COBOL85   FILE=Z8HP.:Z8A6TSI       TUE AUG 26 '97 07:51:54.60  PAGE   72
      ESN       ISN       TEXT

     1842    003545
     1843    003545 $GO_21 NULL                  {GO_SWITCH_ON}
     1844    003545        CASE
     1845    003547        QUIT
     1846    003550
     1847    003550 $GO_22 NULL                  {GO_SWITCH_OFF}
     1848    003550        CASE
     1849    003552        QUIT
     1850    003553 $GO_23 NULL
     1851    003553        GENI    TNC,LOP
     1852    003555        QUIT
     1853    003556
     1854    003556
     1855    003556 $GO_24 NULL
     1856    003556        ASSIGN  XR(1),FREE
     1857    003560        GENI    TSX1,LOP
     1858    003562        GENI    NOP
     1859    003564        QUIT
     1860    003565
     1861    003565 $GO_25 NULL                     { GO FLOAT OVERFLOW  }
     1862    003565
     1863    003565        GENI    TEU,LOP
     1864    003567        GENI    TEO,LOP
     1865    003571        GENI    TOV,LOP
     1866    003573        QUIT
     1867    003574
     1868    003574 $GO_26 NULL
     1869    003574
     1870    003574        ASSIGN  PR(0),FREE
     1871    003576        MAPT    PR(0),OPMOD
     1872    003600        GENI    LDP0,LOP
     1873    003602        MAPT    PR(0),OPMOD
     1874    003604        MAPT    PR(2),TAGMOD
     1875    003606        GENI    (STP0 0)

PSEUDO CODE ASSEMBLER FOR COBOL85   FILE=Z8HP.:Z8A6TSI       TUE AUG 26 '97 07:51:54.60  PAGE   73
      ESN       ISN       TEXT

     1876    003610        MAPT    PR(0),TAGMOD
     1877    003612        GENI    (TRA 0)
     1878    003614        QUIT
     1879    003615        PAGE

PSEUDO CODE ASSEMBLER FOR COBOL85   FILE=Z8HP.:Z8A6TSI       TUE AUG 26 '97 07:51:54.60  PAGE   74
      ESN       ISN       TEXT

     1880    003615 CMPI  START    PEPD                 {LOP :: ROP}
     1881    003615        WALK2                   {WALK  LOP AND ROP}
     1882    003617        ASSIGN  IND,FREE
     1883    003621 $CMPI00 NULL
     1884    003621        DSTATE  TYP25,LOPROP,XABS{DETERMINE STATE}
     1885    003623        JMPDV   XABS,24
     1886    003625        JMP     $CMPIAA          {OPTIMIZED ALIAS}
     1887    003626        JMP     $CMPIAQ          {LOP=ARA,ROP=ARQ}
     1888    003627        JMP     $CMPIAX          {LOP=ARA,ROP=XRn}
     1889    003630        JMP     $CMPIAS          {LOP=ARA,ROP=ST}
     1890    003631        JMP     $CMPIAP          {LOP=ARA, ROP=PR}
     1891    003632        JMP     $CMPIQA          {LOP=ARQ,ROP=ARA}
     1892    003633        JMP     $CMPIQQ          {OPTIMIZED ALIAS}
     1893    003634        JMP     $CMPIQX          {LOP=ARQ,ROP=XRn}
     1894    003635        JMP     $CMPIQS          {LOP=ARQ,ROP=ST}
     1895    003636        JMP     $CMPIQP          {LOP=ARQ, ROP=PR}
     1896    003637        JMP     $CMPIXA          {LOP=XRn,ROP=ARA}
     1897    003640        JMP     $CMPIXQ          {LOP=XRn,ROP=ARQ}
     1898    003641        JMP     $CMPIXX          {LOP=XRn,ROP=XRn}
     1899    003642        JMP     $CMPIXS          {LOP=XRn,ROP=ST}
     1900    003643        JMP     $CMPIXP          {LOP=XRn, ROP=PR}
     1901    003644        JMP     $CMPISA          {LOP=ST ,ROP=ARA}
     1902    003645        JMP     $CMPISQ          {LOP=ST ,ROP=ARQ}
     1903    003646        JMP     $CMPISX          {LOP=ST ,ROP=XRn}
     1904    003647        JMP     $CMPISS          {LOP=ST ,ROP=ST}
     1905    003650        JMP     $CMPISP          {LOP=ST, ROP=PR}
     1906    003651        JMP     $CMPIPA          {LOP=PR, ROP=ARA}
     1907    003652        JMP     $CMPIPQ          {LOP=PR, ROP=ARQ}
     1908    003653        JMP     $CMPIPX          {LOP=PR, ROP=XRn}
     1909    003654        JMP     $CMPIPS          {LOP=PR, ROP=ST}
     1910    003655        JMP     $CMPIPP          {LOP=PR, ROP=PR}
     1911    003656
     1912    003656 $CMPIAA NULL

PSEUDO CODE ASSEMBLER FOR COBOL85   FILE=Z8HP.:Z8A6TSI       TUE AUG 26 '97 07:51:54.60  PAGE   75
      ESN       ISN       TEXT

     1913    003656        DECCNT  LOP
     1914    003660        DECCNT  ROP
     1915    003662        GENI    (SZN 0,DL)
     1916    003664        ASSIGN  IND,USED
     1917    003666        QUIT
     1918    003667
     1919    003667 $CMPIAQ NULL
     1920    003667        STORE   ROP             {SAVE ROP IN TEMP}
     1921    003671        JMP     $CMPIAS          {NEW STATE: LOP=ARA,ROP=ST}
     1922    003672
     1923    003672 $CMPIAX NULL
     1924    003672        GOSUB   R_TO_Q          {INDEX TO ARQ}
     1925    003673        JMP     $CMPI00
     1926    003674
     1927    003674 $CMPIAS NULL
     1928    003674        DECCNT  LOP
     1929    003676        GENI    CMPA,ROP        {IDEAL GENERATION STATE}
     1930    003700        ASSIGN  IND,USED
     1931    003702        QUIT
     1932    003703
     1933    003703 $CMPIQA NULL
     1934    003703        STORE   ROP             {SAVE ROP IN TEMP}
     1935    003705        JMP     $CMPIQS          {NEW STATE: LOP=ARQ,ROP=ST}
     1936    003706
     1937    003706 $CMPIQQ EQUATE     $CMPIAA         {SAME AS FOR AA}
     1938    003706
     1939    003706 $CMPIQX NULL
     1940    003706        GOSUB   R_TO_A          {INDEX TO ARA}
     1941    003707        JMP     $CMPI00
     1942    003710
     1943    003710 $CMPIQS NULL
     1944    003710        DECCNT  LOP
     1945    003712        GENI    CMPQ,ROP        {IDEAL GENERATION STATE}
     1946    003714        ASSIGN  IND,USED

PSEUDO CODE ASSEMBLER FOR COBOL85   FILE=Z8HP.:Z8A6TSI       TUE AUG 26 '97 07:51:54.60  PAGE   76
      ESN       ISN       TEXT

     1947    003716        QUIT
     1948    003717
     1949    003717 $CMPIXA NULL
     1950    003717        GOSUB   L_TO_Q          {INDEX TO ARQ}
     1951    003720        JMP     $CMPI00
     1952    003721
     1953    003721 $CMPIXQ NULL
     1954    003721        GOSUB   L_TO_A          {INDEX TO ARA}
     1955    003722        JMP     $CMPI00
     1956    003723
     1957    003723 $CMPIXX NULL
     1958    003723        GOSUB   L_TO_Q          {LOP'S INDEX TO ARQ}
     1959    003724        JMP     $CMPI00
     1960    003725
     1961    003725 $CMPIXS NULL
     1962    003725        GOSUB   L_TOAR          {INDEX TO AN ARITHMETIC REGISTER}
     1963    003726        JMP     $CMPI00          {NEW STATE: DETERMINE IT}
     1964    003727
     1965    003727
     1966    003727 $CMPISA NULL
     1967    003727        CASE                    {Reverse relational operator}
     1968    003731        DECCNT  ROP
     1969    003733        GENI    CMPA,LOP
     1970    003735        ASSIGN  IND,USED
     1971    003737        QUIT
     1972    003740
     1973    003740 $CMPISQ NULL
     1974    003740        CASE                    {Reverse relational operator}
     1975    003742        DECCNT  ROP
     1976    003744        GENI    CMPQ,LOP
     1977    003746        ASSIGN  IND,USED
     1978    003750        QUIT
     1979    003751
     1980    003751

PSEUDO CODE ASSEMBLER FOR COBOL85   FILE=Z8HP.:Z8A6TSI       TUE AUG 26 '97 07:51:54.60  PAGE   77
      ESN       ISN       TEXT

     1981    003751 $CMPISX NULL
     1982    003751        GOSUB   R_TOAR          {INDEX TO AN ARITHMETIC REGISTER}
     1983    003752        JMP     $CMPI00          {NEW STATE:DETERMINE IT}
     1984    003753
     1985    003753 $CMPISS NULL
     1986    003753        EQLR    ,$CMPIAA
     1987    003755        FAVOR   LOP,AR
     1988    003757        ASSIGN  AR,FREE
     1989    003761        ASSIGN  AR,USED,LOP     {ASSIGN THE CHOSEN AR AS BEING USED}
     1990    003763        MAPT    AR,OPMOD        {MAP IN ONTO OPCODE}
     1991    003765        GENI    LDA,LOP         {LOAD}
     1992    003767
     1993    003767        IFITIS  0,$NOCMP
     1994    003771
     1995    003771        MAPT    AR,OPMOD
     1996    003773        GENI    CMPA,ROP        {DO THE COMPARE}
     1997    003775        JMP     $CMPI_E
     1998    003776
     1999    003776 $NOCMP NULL
     2000    003776        DECCNT  ROP
     2001    004000
     2002    004000 $CMPI_E NULL
     2003    004000        ASSIGN  IND,USED
     2004    004002        QUIT
     2005    004003
     2006    004003 $CMPIAP NULL
     2007    004003         STORE  ROP
     2008    004005         JMP    $CMPIAS
     2009    004006
     2010    004006 $CMPIQP NULL
     2011    004006         STORE  ROP
     2012    004010         JMP    $CMPIQS
     2013    004011
     2014    004011 $CMPIXP NULL

PSEUDO CODE ASSEMBLER FOR COBOL85   FILE=Z8HP.:Z8A6TSI       TUE AUG 26 '97 07:51:54.60  PAGE   78
      ESN       ISN       TEXT

     2015    004011         STORE  ROP             {this should never happen}
     2016    004013         JMP    $CMPIXS
     2017    004014
     2018    004014 $CMPISP NULL
     2019    004014         STORE  ROP
     2020    004016         JMP    $CMPISS
     2021    004017
     2022    004017 $CMPIPA NULL
     2023    004017         STORE  LOP
     2024    004021         JMP    $CMPISA
     2025    004022
     2026    004022 $CMPIPQ NULL
     2027    004022         STORE  LOP
     2028    004024         JMP    $CMPISQ
     2029    004025
     2030    004025 $CMPIPX NULL
     2031    004025         STORE  LOP
     2032    004027         JMP    $CMPISX        {THIS SHOULD NEVER HAPPEN}
     2033    004030
     2034    004030 $CMPIPS NULL
     2035    004030         STORE  LOP
     2036    004032         JMP    $CMPISS
     2037    004033
     2038    004033 $CMPIPP NULL
     2039    004033         STORE  LOP
     2040    004035         STORE  ROP
     2041    004037         JMP    $CMPISS
     2042    004040
     2043    004040        PAGE

PSEUDO CODE ASSEMBLER FOR COBOL85   FILE=Z8HP.:Z8A6TSI       TUE AUG 26 '97 07:51:54.60  PAGE   79
      ESN       ISN       TEXT

     2044    004040 AD2DR START    PEPD
     2045    004040        MOVE    OCTAL(000200000000),PCOM(GABS)  {RD bit on}
     2046    004042
     2047    004042 AD2D  START    PEPD
     2048    004042        WALK2                   {WALK  BOTH LOP AND ROP}
     2049    004044 AD2D00 NULL
     2050    004044        ASSIGN  IND,FREE
     2051    004046        CASE
     2052    004050        DEFER
     2053    004052        GENI    (AD2D (0,0,0,N),(0,0,0,N))
     2054    004054        GENI    NDSC9,ROP
     2055    004056        WALK    LOP             {In case LOP = ROP.}
     2056    004060        GENI    NDSC9,LOP
     2057    004062        WRAPUP                  {SPIT IT OUT}
     2058    004064        ASSIGN  AR(LOP),FREE    {MAKE SURE NOT MARKED AS IN REGISTER}
     2059    004066        QUIT
     2060    004067
     2061    004067 AD3DR START    PEPD
     2062    004067        MOVE    OCTAL(000200000000),PCOM(GABS)  {RD bit on}
     2063    004071
     2064    004071 AD3D  START    PEPD
     2065    004071        WALK3                   {WALK  LOP, ROP, AND TO}
     2066    004073 AD3D00 NULL
     2067    004073        ASSIGN  IND,FREE
     2068    004075        CASE
     2069    004077        DEFER
     2070    004101        GENI    (AD3D (0,0,0,N),(0,0,0,N),(0,0,0,N))
     2071    004103        GENI    NDSC9,LOP
     2072    004105        GENI    NDSC9,ROP
     2073    004107        GENI    NDSC9,TO
     2074    004111        WRAPUP
     2075    004113        ASSIGN  AR(TO),FREE     {MAKE SURE NOT MARKED AS IN REGISTER}
     2076    004115        QUIT

PSEUDO CODE ASSEMBLER FOR COBOL85   FILE=Z8HP.:Z8A6TSI       TUE AUG 26 '97 07:51:54.60  PAGE   80
      ESN       ISN       TEXT

     2077    004116        PAGE

PSEUDO CODE ASSEMBLER FOR COBOL85   FILE=Z8HP.:Z8A6TSI       TUE AUG 26 '97 07:51:54.60  PAGE   81
      ESN       ISN       TEXT

     2078    004116 SB2DR START    PEPD
     2079    004116        MOVE    OCTAL(000200000000),PCOM(GABS)  {RD bit on}
     2080    004120
     2081    004120 SB2D  START    PEPD
     2082    004120        WALK2                   {WALK  BOTH LOP AND ROP}
     2083    004122 SB2D00 NULL
     2084    004122        ASSIGN  IND,FREE
     2085    004124        CASE
     2086    004126        DEFER
     2087    004130        GENI    (SB2D (0,0,0,N),(0,0,0,N))
     2088    004132        GENI    NDSC9,ROP
     2089    004134        WALK    LOP             {In case LOP = ROP.}
     2090    004136        GENI    NDSC9,LOP
     2091    004140        WRAPUP                  {SPIT IT OUT}
     2092    004142        ASSIGN  AR(LOP),FREE    {MAKE SURE NOT MARKED AS IN REGISTER}
     2093    004144        QUIT
     2094    004145
     2095    004145 SB3DR START    PEPD
     2096    004145        MOVE    OCTAL(000200000000),PCOM(GABS)  {RD bit on}
     2097    004147
     2098    004147 SB3D  START    PEPD
     2099    004147        WALK3                   {WALK  LOP, ROP, AND TO}
     2100    004151 SB3D00 NULL
     2101    004151        ASSIGN  IND,FREE
     2102    004153        CASE
     2103    004155        DEFER
     2104    004157        GENI    (SB3D (0,0,0,N),(0,0,0,N),(0,0,0,N))
     2105    004161        GENI    NDSC9,ROP
     2106    004163        GENI    NDSC9,LOP
     2107    004165        GENI    NDSC9,TO
     2108    004167        WRAPUP
     2109    004171        ASSIGN  AR(TO),FREE     {MAKE SURE NOT MARKED AS IN REGISTER}
     2110    004173        QUIT

PSEUDO CODE ASSEMBLER FOR COBOL85   FILE=Z8HP.:Z8A6TSI       TUE AUG 26 '97 07:51:54.60  PAGE   82
      ESN       ISN       TEXT

     2111    004174        PAGE

PSEUDO CODE ASSEMBLER FOR COBOL85   FILE=Z8HP.:Z8A6TSI       TUE AUG 26 '97 07:51:54.60  PAGE   83
      ESN       ISN       TEXT

     2112    004174 MP2DR START    PEPD
     2113    004174        MOVE    OCTAL(000200000000),PCOM(GABS)  {RD bit on}
     2114    004176
     2115    004176 MP2D  START    PEPD
     2116    004176        WALK2                   {WALK  BOTH LOP AND ROP}
     2117    004200 MP2D00 NULL
     2118    004200        ASSIGN  IND,FREE
     2119    004202        CASE
     2120    004204        DEFER
     2121    004206        GENI    (MP2D (0,0,0,N),(0,0,0,N))
     2122    004210        GENI    NDSC9,ROP
     2123    004212        WALK    LOP             {In case LOP = ROP.}
     2124    004214        GENI    NDSC9,LOP
     2125    004216        WRAPUP                  {SPIT IT OUT}
     2126    004220        ASSIGN  AR(LOP),FREE    {MAKE SURE NOT MARKED AS IN REGISTER}
     2127    004222        QUIT
     2128    004223
     2129    004223 MP3DR START    PEPD
     2130    004223        MOVE    OCTAL(000200000000),PCOM(GABS)  {RD bit on}
     2131    004225
     2132    004225 MP3D  START    PEPD
     2133    004225        WALK3                   {WALK  LOP, ROP, AND TO}
     2134    004227 MP3D00 NULL
     2135    004227        ASSIGN  IND,FREE
     2136    004231        CASE
     2137    004233        DEFER
     2138    004235        GENI    (MP3D (0,0,0,N),(0,0,0,N),(0,0,0,N))
     2139    004237        GENI    NDSC9,LOP
     2140    004241        GENI    NDSC9,ROP
     2141    004243        GENI    NDSC9,TO
     2142    004245        WRAPUP
     2143    004247        ASSIGN  AR(TO),FREE     {MAKE SURE NOT MARKED AS IN REGISTER}
     2144    004251        QUIT

PSEUDO CODE ASSEMBLER FOR COBOL85   FILE=Z8HP.:Z8A6TSI       TUE AUG 26 '97 07:51:54.60  PAGE   84
      ESN       ISN       TEXT

     2145    004252        PAGE

PSEUDO CODE ASSEMBLER FOR COBOL85   FILE=Z8HP.:Z8A6TSI       TUE AUG 26 '97 07:51:54.60  PAGE   85
      ESN       ISN       TEXT

     2146    004252 DV2DR START    PEPD
     2147    004252        MOVE    OCTAL(000200000000),PCOM(GABS)  {RD bit on}
     2148    004254
     2149    004254 DV2D  START    PEPD
     2150    004254        WALK2                   {WALK  BOTH LOP AND ROP}
     2151    004256 DV2D00 NULL
     2152    004256        ASSIGN  IND,FREE
     2153    004260        CASE
     2154    004262        DEFER
     2155    004264        GENI    (DV2D (0,0,0,N),(0,0,0,N))
     2156    004266        GENI    NDSC9,ROP
     2157    004270        WALK    LOP             {In case LOP = ROP.}
     2158    004272        GENI    NDSC9,LOP
     2159    004274        WRAPUP                  {SPIT IT OUT}
     2160    004276        ASSIGN  AR(LOP),FREE    {MAKE SURE NOT MARKED AS IN REGISTER}
     2161    004300        QUIT
     2162    004301
     2163    004301 DV3DR START    PEPD
     2164    004301        MOVE    OCTAL(000200000000),PCOM(GABS)  {RD bit on}
     2165    004303
     2166    004303 DV3D  START    PEPD
     2167    004303        WALK3                   {WALK  LOP, ROP, AND TO}
     2168    004305 DV3D00 NULL
     2169    004305        ASSIGN  IND,FREE
     2170    004307        CASE
     2171    004311        DEFER
     2172    004313        GENI    (DV3D (0,0,0,N),(0,0,0,N),(0,0,0,N))
     2173    004315        GENI    NDSC9,ROP
     2174    004317        GENI    NDSC9,LOP
     2175    004321        GENI    NDSC9,TO
     2176    004323        WRAPUP
     2177    004325        ASSIGN  AR(TO),FREE     {MAKE SURE NOT MARKED AS IN REGISTER}
     2178    004327        QUIT

PSEUDO CODE ASSEMBLER FOR COBOL85   FILE=Z8HP.:Z8A6TSI       TUE AUG 26 '97 07:51:54.60  PAGE   86
      ESN       ISN       TEXT

     2179    004330        PAGE

PSEUDO CODE ASSEMBLER FOR COBOL85   FILE=Z8HP.:Z8A6TSI       TUE AUG 26 '97 07:51:54.60  PAGE   87
      ESN       ISN       TEXT

     2180    004330 AD2OR START    PEPD
     2181    004330        MOVE    OCTAL(000200000000),PCOM(GABS)  {RD bit on}
     2182    004332
     2183    004332 AD2O  START    PEPD
     2184    004332        WALK2                   {WALK  BOTH LOP AND ROP}
     2185    004334 AD2O00 NULL
     2186    004334        ASSIGN  IND,FREE
     2187    004336        GOSUB   CS_NS           {Set CS and NS bits}
     2188    004337        DEFER
     2189    004341        GENI    (AD2DX (0,0,0,N),(0,0,0,N))
     2190    004343        GENI    NDSC9,ROP
     2191    004345        WALK    LOP             {In case LOP = ROP.}
     2192    004347        GENI    NDSC9,LOP
     2193    004351        WRAPUP                  {SPIT IT OUT}
     2194    004353        ASSIGN  AR(LOP),FREE    {MAKE SURE NOT MARKED AS IN REGISTER}
     2195    004355        QUIT
     2196    004356
     2197    004356 AD3OR START    PEPD
     2198    004356        MOVE    OCTAL(000200000000),PCOM(GABS)  {RD bit on}
     2199    004360
     2200    004360 AD3O  START    PEPD
     2201    004360        WALK3                   {WALK  LOP, ROP, AND TO}
     2202    004362 AD3O00 NULL
     2203    004362        ASSIGN  IND,FREE
     2204    004364        GOSUB   CS_NS           {Set CS and NS bits}
     2205    004365        DEFER
     2206    004367        GENI    (AD3DX (0,0,0,N),(0,0,0,N),(0,0,0,N))
     2207    004371        GENI    NDSC9,LOP
     2208    004373        GENI    NDSC9,ROP
     2209    004375        GENI    NDSC9,TO
     2210    004377        WRAPUP
     2211    004401        ASSIGN  AR(TO),FREE     {MAKE SURE NOT MARKED AS IN REGISTER}
     2212    004403        QUIT

PSEUDO CODE ASSEMBLER FOR COBOL85   FILE=Z8HP.:Z8A6TSI       TUE AUG 26 '97 07:51:54.60  PAGE   88
      ESN       ISN       TEXT

     2213    004404        PAGE

PSEUDO CODE ASSEMBLER FOR COBOL85   FILE=Z8HP.:Z8A6TSI       TUE AUG 26 '97 07:51:54.60  PAGE   89
      ESN       ISN       TEXT

     2214    004404 SB2OR START    PEPD
     2215    004404        MOVE    OCTAL(000200000000),PCOM(GABS)  {RD bit on}
     2216    004406
     2217    004406 SB2O  START    PEPD
     2218    004406        WALK2                   {WALK  BOTH LOP AND ROP}
     2219    004410 SB2O00 NULL
     2220    004410        ASSIGN  IND,FREE
     2221    004412        GOSUB   CS_NS           {Set CS and NS bits}
     2222    004413        DEFER
     2223    004415        GENI    (SB2DX (0,0,0,N),(0,0,0,N))
     2224    004417        GENI    NDSC9,ROP
     2225    004421        WALK    LOP             {In case LOP = ROP.}
     2226    004423        GENI    NDSC9,LOP
     2227    004425        WRAPUP                  {SPIT IT OUT}
     2228    004427        ASSIGN  AR(LOP),FREE    {MAKE SURE NOT MARKED AS IN REGISTER}
     2229    004431        QUIT
     2230    004432
     2231    004432 SB3OR START    PEPD
     2232    004432        MOVE    OCTAL(000200000000),PCOM(GABS)  {RD bit on}
     2233    004434
     2234    004434 SB3O  START    PEPD
     2235    004434        WALK3                   {WALK  LOP, ROP, AND TO}
     2236    004436 SB3O00 NULL
     2237    004436        ASSIGN  IND,FREE
     2238    004440        GOSUB   CS_NS           {Set CS and NS bits}
     2239    004441        DEFER
     2240    004443        GENI    (SB3DX (0,0,0,N),(0,0,0,N),(0,0,0,N))
     2241    004445        GENI    NDSC9,ROP
     2242    004447        GENI    NDSC9,LOP
     2243    004451        GENI    NDSC9,TO
     2244    004453        WRAPUP
     2245    004455        ASSIGN  AR(TO),FREE     {MAKE SURE NOT MARKED AS IN REGISTER}
     2246    004457        QUIT

PSEUDO CODE ASSEMBLER FOR COBOL85   FILE=Z8HP.:Z8A6TSI       TUE AUG 26 '97 07:51:54.60  PAGE   90
      ESN       ISN       TEXT

     2247    004460        PAGE

PSEUDO CODE ASSEMBLER FOR COBOL85   FILE=Z8HP.:Z8A6TSI       TUE AUG 26 '97 07:51:54.60  PAGE   91
      ESN       ISN       TEXT

     2248    004460 MP2OR START    PEPD
     2249    004460        MOVE    OCTAL(000200000000),PCOM(GABS)  {RD bit on}
     2250    004462
     2251    004462 MP2O  START    PEPD
     2252    004462        WALK2                   {WALK  BOTH LOP AND ROP}
     2253    004464 MP2O00 NULL
     2254    004464        ASSIGN  IND,FREE
     2255    004466        GOSUB   CS_NS           {Set CS and NS bits}
     2256    004467        DEFER
     2257    004471        GENI    (MP2DX (0,0,0,N),(0,0,0,N))
     2258    004473        GENI    NDSC9,ROP
     2259    004475        WALK    LOP             {In case LOP = ROP.}
     2260    004477        GENI    NDSC9,LOP
     2261    004501        WRAPUP                  {SPIT IT OUT}
     2262    004503        ASSIGN  AR(LOP),FREE    {MAKE SURE NOT MARKED AS IN REGISTER}
     2263    004505        QUIT
     2264    004506
     2265    004506 MP3OR START    PEPD
     2266    004506        MOVE    OCTAL(000200000000),PCOM(GABS)  {RD bit on}
     2267    004510
     2268    004510 MP3O  START    PEPD
     2269    004510        WALK3                   {WALK  LOP, ROP, AND TO}
     2270    004512 MP3O00 NULL
     2271    004512        ASSIGN  IND,FREE
     2272    004514        GOSUB   CS_NS           {Set CS and NS bits}
     2273    004515        DEFER
     2274    004517        GENI    (MP3DX (0,0,0,N),(0,0,0,N),(0,0,0,N))
     2275    004521        GENI    NDSC9,LOP
     2276    004523        GENI    NDSC9,ROP
     2277    004525        GENI    NDSC9,TO
     2278    004527        WRAPUP
     2279    004531        ASSIGN  AR(TO),FREE     {MAKE SURE NOT MARKED AS IN REGISTER}
     2280    004533        QUIT

PSEUDO CODE ASSEMBLER FOR COBOL85   FILE=Z8HP.:Z8A6TSI       TUE AUG 26 '97 07:51:54.60  PAGE   92
      ESN       ISN       TEXT

     2281    004534        PAGE

PSEUDO CODE ASSEMBLER FOR COBOL85   FILE=Z8HP.:Z8A6TSI       TUE AUG 26 '97 07:51:54.60  PAGE   93
      ESN       ISN       TEXT

     2282    004534 DV2OR START    PEPD
     2283    004534        MOVE    OCTAL(000200000000),PCOM(GABS)  {RD bit on}
     2284    004536
     2285    004536 DV2O  START    PEPD
     2286    004536        WALK2                   {WALK  BOTH LOP AND ROP}
     2287    004540 DV2O00 NULL
     2288    004540        ASSIGN  IND,FREE
     2289    004542        GOSUB   CS_NS           {Set CS and NS bits}
     2290    004543        DEFER
     2291    004545        GENI    (DV2DX (0,0,0,N),(0,0,0,N))
     2292    004547        GENI    NDSC9,ROP
     2293    004551        WALK    LOP             {In case LOP = ROP.}
     2294    004553        GENI    NDSC9,LOP
     2295    004555        WRAPUP                  {SPIT IT OUT}
     2296    004557        ASSIGN  AR(LOP),FREE    {MAKE SURE NOT MARKED AS IN REGISTER}
     2297    004561        QUIT
     2298    004562
     2299    004562 DV3OR START    PEPD
     2300    004562        MOVE    OCTAL(000200000000),PCOM(GABS)  {RD bit on}
     2301    004564
     2302    004564 DV3O  START    PEPD
     2303    004564        WALK3                   {WALK  LOP, ROP, AND TO}
     2304    004566 DV3O00 NULL
     2305    004566        ASSIGN  IND,FREE
     2306    004570        GOSUB   CS_NS           {Set CS and NS bits}
     2307    004571        DEFER
     2308    004573        GENI    (DV3DX (0,0,0,N),(0,0,0,N),(0,0,0,N))
     2309    004575        GENI    NDSC9,ROP
     2310    004577        GENI    NDSC9,LOP
     2311    004601        GENI    NDSC9,TO
     2312    004603        WRAPUP
     2313    004605        ASSIGN  AR(TO),FREE     {MAKE SURE NOT MARKED AS IN REGISTER}
     2314    004607        QUIT

PSEUDO CODE ASSEMBLER FOR COBOL85   FILE=Z8HP.:Z8A6TSI       TUE AUG 26 '97 07:51:54.60  PAGE   94
      ESN       ISN       TEXT

     2315    004610 CS_NS  NULL
     2316    004610        CASE    EABS,IABS
     2317    004612        JMPDV   EABS,1
     2318    004614        JMP     $NS_OFF         {Destination is not unsigned unpacked}
     2319    004615        AD      OCTAL(200000000000),PCOM(GABS)  {Set NS bit}
     2320    004617 $NS_OFF NULL
     2321    004617        JMPDV   IABS,1
     2322    004621        RTN                     {Destination is EBCDIC}
     2323    004622        AD      OCTAL(400000000000),PCOM(GABS)  {Set CS bit}
     2324    004624        RTN
     2325    004625        PAGE

PSEUDO CODE ASSEMBLER FOR COBOL85   FILE=Z8HP.:Z8A6TSI       TUE AUG 26 '97 07:51:54.60  PAGE   95
      ESN       ISN       TEXT

     2326    004625 MPD10 START    PEPD
     2327    004625 FISS  START    PEPD
     2328    004625 OFF   START    PEPD
     2329    004625 DNA   START    PEPD
     2330    004625 DAN   START    PEPD
     2331    004625 D96   START    PEPD
     2332    004625 DESC  START    PEPD
     2333    004625        WALK    LOP             {TREE-WALK BASE TRIAD ON LOP}
     2334    004627        REF_
     2335    004631        DECCNT  LOP
     2336    004633        QUIT
     2337    004634        PAGE

PSEUDO CODE ASSEMBLER FOR COBOL85   FILE=Z8HP.:Z8A6TSI       TUE AUG 26 '97 07:51:54.60  PAGE   96
      ESN       ISN       TEXT

     2338    004634 {SHIFT_L and SHIFT_R function exactly like MPI2 and DVI2.
     2339    004634  They exist primarily for documentation purposes. }
     2340    004634 SHIFT_L START  PEPD
     2341    004634         JMP    MPI2
     2342    004635
     2343    004635 SHIFT_R START  PEPD
     2344    004635         JMP    DVI2
     2345    004636
     2346    004636         PAGE

PSEUDO CODE ASSEMBLER FOR COBOL85   FILE=Z8HP.:Z8A6TSI       TUE AUG 26 '97 07:51:54.60  PAGE   97
      ESN       ISN       TEXT

     2347    004636 MPI2  START    PEPD
     2348    004636        WALK    LOP             {TREE-WALK LOP}
     2349    004640 $MPI200 NULL
     2350    004640        DSTATE  TYI5,LOP,XABS
     2351    004642        JMPDV   XABS,4
     2352    004644        JMP     $MPI2A           {LOP A CONTAINED}
     2353    004645        JMP     $MPI2Q           {LOP Q CONTAINED}
     2354    004646        JMP     $MPI2X           {LOP IN XR}
     2355    004647        JMP     $MPI2S           {LOP STORAGE CONTAINED}
     2356    004650
     2357    004650 $MPI2C  NULL
     2358    004650                                            {CONST}
     2359    004650        DECCNT  LOP
     2360    004652        QUIT
     2361    004653
     2362    004653 $MPI2A  NULL
     2363    004653        DECCNT  LOP             {IMPLIED REFERENCE TO LOP}
     2364    004655        ASSIGN  AR(A),FREE      {GET THE A REGISTER}
     2365    004657        MOVE    ILL(ROP),PCOM(GABS)  {MOVE THE ROPCON SHIFT FACTOR}
     2366    004661        SHIFTL  PCOM(GABS),DECIMAL(18) {SHIFT CONSTANT INTO UPPER}
     2367    004663        GENI    (ALS 0)         {SHIFT ROPCON TIMES}
     2368    004665        ASSIGN  AR(A),USED      {MARK A REGISTER AS USED}
     2369    004667        CASE                    {Set GREATER_256K bit if need be}
     2370    004671        QUIT
     2371    004672
     2372    004672 $MPI2Q  NULL
     2373    004672        DECCNT  LOP             {IMPLIED REFERENCE TO LOP}
     2374    004674        ASSIGN  AR(Q),FREE      {GET THE Q REGISTER}
     2375    004676        MOVE    ILL(ROP),PCOM(GABS)  {MOVE THE ROPCON SHIFT FACTOR}
     2376    004700        SHIFTL  PCOM(GABS),DECIMAL(18) {SHIFT CONSTANT INTO UPPER}
     2377    004702        GENI    (QLS 0)         {SHIFT ROPCON TIMES}
     2378    004704        ASSIGN  AR(Q),USED      {MARK Q REGISTER AS USED}
     2379    004706        CASE                    {Set GREATER_256K bit if need be}

PSEUDO CODE ASSEMBLER FOR COBOL85   FILE=Z8HP.:Z8A6TSI       TUE AUG 26 '97 07:51:54.60  PAGE   98
      ESN       ISN       TEXT

     2380    004710        QUIT
     2381    004711
     2382    004711 $MPI2X  NULL
     2383    004711        GOSUB   L_TOAR          {MOVE XR TO AN ARITHMETIC REGISTER}
     2384    004712        JMP     $MPI200          {DETERMINE NEW STATE}
     2385    004713
     2386    004713 $MPI2S  NULL
     2387    004713        FAVOR   LOP,AR
     2388    004715        ASSIGN  AR,FREE         {GET AN ARITHMETIC REGISTER}
     2389    004717        MAPT    AR,OPMOD,2      {CHANGE NEXT INSTRUCTION MAYBE}
     2390    004721        GENI    LDA,LOP         {LOAD LOP}
     2391    004723        MOVE    ILL(ROP),PCOM(GABS) {MOVE ROPCON SHIFT FACTOR}
     2392    004725        SHIFTL  PCOM(GABS),DECIMAL(18) {MOVE IT TO THE Y FIELD}
     2393    004727        GENI    (ALS 0)
     2394    004731        ASSIGN  AR,USED
     2395    004733        CASE                    {Set GREATER_256K bit if need be}
     2396    004735        QUIT
     2397    004736        PAGE

PSEUDO CODE ASSEMBLER FOR COBOL85   FILE=Z8HP.:Z8A6TSI       TUE AUG 26 '97 07:51:54.60  PAGE   99
      ESN       ISN       TEXT

     2398    004736 DVI2  START    PEPD
     2399    004736        WALK    LOP             {TREE-WALK LOP}
     2400    004740 $DVI200 NULL
     2401    004740        DSTATE  TYI5,LOP,XABS
     2402    004742        JMPDV   XABS,4
     2403    004744        JMP     $DVI2A           {LOP A CONTAINED}
     2404    004745        JMP     $DVI2Q           {LOP Q CONTAINED}
     2405    004746        JMP     $DVI2X           {LOP IN XR}
     2406    004747        JMP     $DVI2S           {LOP STORAGE CONTAINED}
     2407    004750
     2408    004750 $DVI2C  NULL
     2409    004750                                            {CONST}
     2410    004750        DECCNT  LOP
     2411    004752        QUIT
     2412    004753
     2413    004753 $DVI2A  NULL
     2414    004753        DECCNT  LOP             {IMPLIED REFERENCE TO LOP}
     2415    004755        ASSIGN  AR(A),FREE      {GET THE A REGISTER}
     2416    004757        MOVE    ILL(ROP),PCOM(GABS)  {MOVE THE ROPCON SHIFT FACTOR}
     2417    004761        SHIFTL  PCOM(GABS),DECIMAL(18) {SHIFT CONSTANT INTO UPPER}
     2418    004763        GENI    (ARS 0)         {SHIFT ROPCON TIMES}
     2419    004765        ASSIGN  AR(A),USED      {MARK A REGISTER AS USED}
     2420    004767        QUIT
     2421    004770
     2422    004770 $DVI2Q  NULL
     2423    004770        DECCNT  LOP             {IMPLIED REFERENCE TO LOP}
     2424    004772        ASSIGN  AR(Q),FREE      {GET THE Q REGISTER}
     2425    004774        MOVE    ILL(ROP),PCOM(GABS)  {MOVE THE ROPCON SHIFT FACTOR}
     2426    004776        SHIFTL  PCOM(GABS),DECIMAL(18) {SHIFT CONSTANT INTO UPPER}
     2427    005000        GENI    (QRS 0)         {SHIFT ROPCON TIMES}
     2428    005002        ASSIGN  AR(Q),USED      {MARK Q REGISTER AS USED}
     2429    005004        QUIT
     2430    005005

PSEUDO CODE ASSEMBLER FOR COBOL85   FILE=Z8HP.:Z8A6TSI       TUE AUG 26 '97 07:51:54.60  PAGE  100
      ESN       ISN       TEXT

     2431    005005 $DVI2X  NULL
     2432    005005        GOSUB   L_TOAR          {MOVE XR TO AN ARITHMETIC REGISTER}
     2433    005006        JMP     $DVI200          {DETERMINE NEW STATE}
     2434    005007
     2435    005007 $DVI2S  NULL
     2436    005007        FAVOR   LOP,AR
     2437    005011        ASSIGN  AR,FREE         {GET AN ARITHMETIC REGISTER}
     2438    005013        MAPT    AR,OPMOD,2      {CHANGE NEXT INSTRUCTION MAYBE}
     2439    005015        GENI    LDA,LOP         {LOAD LOP}
     2440    005017        MOVE    ILL(ROP),PCOM(GABS) {MOVE ROPCON SHIFT FACTOR}
     2441    005021        SHIFTL  PCOM(GABS),DECIMAL(18) {MOVE IT TO THE Y FIELD}
     2442    005023        GENI    (ARS 0)
     2443    005025        ASSIGN  AR,USED
     2444    005027        QUIT
     2445    005030        PAGE

PSEUDO CODE ASSEMBLER FOR COBOL85   FILE=Z8HP.:Z8A6TSI       TUE AUG 26 '97 07:51:54.60  PAGE  101
      ESN       ISN       TEXT

     2446    005030 ADD   START    PEPD
     2447    005030        WALK2                   {WALK  LOP, ROP, TO}
     2448    005032        DEFER                   {BUFFER INSTRUCTION}
     2449    005034        GENI    (AD3D (0,0,0,N),(0,0,0,N),(0,0,0,N))
     2450    005036        JMP     G3DESC          {GENERATE 3 DESCRIPTORS}
     2451    005037
     2452    005037 SBD   START    PEPD
     2453    005037        WALK2                   {WALK  LOP,ROP,TO}
     2454    005041        DEFER                   {BUFFER INSTRUCTION}
     2455    005043        GENI    (SB3D (0,0,0,N),(0,0,0,N),(0,0,0,N))
     2456    005045        JMP     G3DESC          {GENERATE 3 DESCRIPTORS}
     2457    005046
     2458    005046 MPD   START    PEPD
     2459    005046        WALK2                   {WALK  LOP,ROP,TO}
     2460    005050        DEFER                   {BUFFER INSTRUCTION}
     2461    005052        GENI    (MP3D (0,0,0,N),(0,0,0,N),(0,0,0,N))
     2462    005054        JMP     G3DESC          {GENERATE 3 DESCRIPTORS}
     2463    005055
     2464    005055 DVD   START    PEPD
     2465    005055        WALK2                   {WALK  LOP,ROP,TO}
     2466    005057        DEFER                   {BUFFER INSTRUCTIONS}
     2467    005061        GENI    (DV3D (0,0,0,N),(0,0,0,N),(0,0,0,N))
     2468    005063        JMP     G3DESC          {GENERATE 3 DESCRIPTORS}
     2469    005064
     2470    005064 DVDR  START    PEPD
     2471    005064        WALK2                   {WALK  LOP,ROP,TO}
     2472    005066        DEFER                   {BUFFER INSTRUCTION}
     2473    005070        GENI    (DV3D (0,0,0,N),(0,0,0,N),(0,0,0,N),1)
     2474    005072
     2475    005072 G3DESC NULL
     2476    005072        ALLOTD  XOPND           {ALLOCATE A TEMP PER LOP & ROP}
     2477    005074        GENI    NDSC9,ROP
     2478    005076        GENI    NDSC9,LOP

PSEUDO CODE ASSEMBLER FOR COBOL85   FILE=Z8HP.:Z8A6TSI       TUE AUG 26 '97 07:51:54.60  PAGE  102
      ESN       ISN       TEXT

     2479    005100        GENI    NDSC4,XOPND
     2480    005102        WRAPUP
     2481    005104
     2482    005104        ATTACH  XOPND
     2483    005106        QUIT
     2484    005107        PAGE

PSEUDO CODE ASSEMBLER FOR COBOL85   FILE=Z8HP.:Z8A6TSI       TUE AUG 26 '97 07:51:54.60  PAGE  103
      ESN       ISN       TEXT

     2485    005107 ADO   START    PEPD
     2486    005107        WALK2
     2487    005111        GOSUB   CHECK_FOR_UNSIGNED_ASCII
     2488    005112
     2489    005112        JMPDV   EABS,2
     2490    005114        JMP     $ADO_NO_CONV
     2491    005115        JMP     $ADO_LOP_CONV
     2492    005116        JMP     $ADO_ROP_CONV
     2493    005117
     2494    005117 $ADO_NO_CONV   NULL
     2495    005117        DEFER
     2496    005121        GENI    (AD3DX ,,,0,2)
     2497    005123        JMP     G3DESC_OVP
     2498    005124
     2499    005124 $ADO_LOP_CONV  NULL
     2500    005124        DEFER
     2501    005126        GENI    (AD2DX ,,0,2)
     2502    005130        JMP     G2DESC_CONV_LOP
     2503    005131
     2504    005131 $ADO_ROP_CONV  NULL
     2505    005131        DEFER
     2506    005133        GENI    (AD2DX ,,0,2)
     2507    005135        JMP     G2DESC_CONV_ROP
     2508    005136        PAGE

PSEUDO CODE ASSEMBLER FOR COBOL85   FILE=Z8HP.:Z8A6TSI       TUE AUG 26 '97 07:51:54.60  PAGE  104
      ESN       ISN       TEXT

     2509    005136 MPO   START    PEPD
     2510    005136        WALK2
     2511    005140        GOSUB   CHECK_FOR_UNSIGNED_ASCII
     2512    005141
     2513    005141        JMPDV   EABS,2
     2514    005143        JMP     $MPO_NO_CONV
     2515    005144        JMP     $MPO_LOP_CONV
     2516    005145        JMP     $MPO_ROP_CONV
     2517    005146
     2518    005146 $MPO_NO_CONV   NULL
     2519    005146        DEFER
     2520    005150        GENI    (MP3DX ,,,0,2)
     2521    005152        JMP     G3DESC_OVP
     2522    005153
     2523    005153 $MPO_LOP_CONV  NULL
     2524    005153        DEFER
     2525    005155        GENI    (MP2DX ,,0,2)
     2526    005157        JMP     G2DESC_CONV_LOP
     2527    005160
     2528    005160 $MPO_ROP_CONV  NULL
     2529    005160        DEFER
     2530    005162        GENI    (MP2DX ,,0,2)
     2531    005164        JMP     G2DESC_CONV_ROP
     2532    005165        PAGE

PSEUDO CODE ASSEMBLER FOR COBOL85   FILE=Z8HP.:Z8A6TSI       TUE AUG 26 '97 07:51:54.60  PAGE  105
      ESN       ISN       TEXT

     2533    005165
     2534    005165 SBO   START    PEPD
     2535    005165        WALK2
     2536    005167        GOSUB   CHECK_FOR_UNSIGNED_ASCII
     2537    005170
     2538    005170        JMPDV   EABS,2
     2539    005172        JMP     $SBO_NO_CONV
     2540    005173        JMP     $SBO_LOP_CONV
     2541    005174        JMP     $SBO_ROP_CONV
     2542    005175
     2543    005175 $SBO_NO_CONV   NULL
     2544    005175        DEFER
     2545    005177        GENI    (SB3DX ,,,0,2)
     2546    005201        JMP     G3DESC_OVP
     2547    005202
     2548    005202 $SBO_LOP_CONV  NULL
     2549    005202        DEFER
     2550    005204        GENI    (SB2DX ,,0,2)
     2551    005206        JMP     G2DESC_CONV_LOP
     2552    005207
     2553    005207 $SBO_ROP_CONV  NULL
     2554    005207        INCCNT  ROPND
     2555    005211        DEFER
     2556    005213        GENI    (SB3DX ,,,0,2)
     2557    005215        JMP     G3DESC_OVP
     2558    005216        PAGE

PSEUDO CODE ASSEMBLER FOR COBOL85   FILE=Z8HP.:Z8A6TSI       TUE AUG 26 '97 07:51:54.60  PAGE  106
      ESN       ISN       TEXT

     2559    005216
     2560    005216 DVO   START    PEPD
     2561    005216        WALK2
     2562    005220        GOSUB   CHECK_FOR_UNSIGNED_ASCII
     2563    005221
     2564    005221        JMPDV   EABS,2
     2565    005223        JMP     $DVO_NO_CONV
     2566    005224        JMP     $DVO_LOP_CONV
     2567    005225        JMP     $DVO_ROP_CONV
     2568    005226
     2569    005226 $DVO_NO_CONV   NULL
     2570    005226        DEFER
     2571    005230        GENI    (DV3DX ,,,0,2)
     2572    005232        JMP     G3DESC_OVP
     2573    005233
     2574    005233 $DVO_LOP_CONV  NULL
     2575    005233        DEFER
     2576    005235        GENI    (DV2DX ,,0,2)
     2577    005237        JMP     G2DESC_CONV_LOP
     2578    005240
     2579    005240 $DVO_ROP_CONV  NULL
     2580    005240        INCCNT  ROPND
     2581    005242        DEFER
     2582    005244        GENI    (DV3DX ,,,0,2)
     2583    005246        JMP     G3DESC_OVP
     2584    005247 DVOR   START    PEPD
     2585    005247        WALK2
     2586    005251        GOSUB   CHECK_FOR_UNSIGNED_ASCII
     2587    005252
     2588    005252        JMPDV   EABS,2
     2589    005254        JMP     $DVOR_NO_CONV
     2590    005255        JMP     $DVOR_LOP_CONV
     2591    005256        JMP     $DVOR_ROP_CONV

PSEUDO CODE ASSEMBLER FOR COBOL85   FILE=Z8HP.:Z8A6TSI       TUE AUG 26 '97 07:51:54.60  PAGE  107
      ESN       ISN       TEXT

     2592    005257
     2593    005257 $DVOR_NO_CONV   NULL
     2594    005257        DEFER
     2595    005261        GENI    (DV3DX ,,,1,2)
     2596    005263        JMP     G3DESC_OVP
     2597    005264
     2598    005264 $DVOR_LOP_CONV  NULL
     2599    005264        DEFER
     2600    005266        GENI    (DV2DX ,,1,2)
     2601    005270        JMP     G2DESC_CONV_LOP
     2602    005271
     2603    005271 $DVOR_ROP_CONV  NULL
     2604    005271        INCCNT  ROPND
     2605    005273        DEFER
     2606    005275        GENI    (DV3DX ,,,1,2)
     2607    005277        JMP     G3DESC_OVP
     2608    005300 CHECK_FOR_UNSIGNED_ASCII NULL
     2609    005300        ALLOTD  XOPND
     2610    005302
     2611    005302        MOVE    ILL(LOP),PCOM(LOPND)
     2612    005304        MOVE    ILL(ROP),PCOM(ROPND)
     2613    005306
     2614    005306        CASE    EABS                  {EABS = 0: both lop and rop TYO
     2615    005310                                            = 1: lop is unsigned ascii
     2616    005310                                            = 2: rop is unsigned ascii }
     2617    005310        JMPDV   EABS,2
     2618    005312        RTN
     2619    005313        JMP     $CONVERT_LOP
     2620    005314        JMP     $CONVERT_ROP
     2621    005315
     2622    005315 $CONVERT_LOP   NULL
     2623    005315        INCCNT  XOPND
     2624    005317
     2625    005317        DEFER

PSEUDO CODE ASSEMBLER FOR COBOL85   FILE=Z8HP.:Z8A6TSI       TUE AUG 26 '97 07:51:54.60  PAGE  108
      ESN       ISN       TEXT

     2626    005321        GENI    (MVN ,,)
     2627    005323        GENI    NDSC9,LOP
     2628    005325        GENI    NDSC4,XOPND
     2629    005327        WRAPUP
     2630    005331        MOVE    PCOM(XOPND),PCOM(LOPND)
     2631    005333        RTN
     2632    005334
     2633    005334 $CONVERT_ROP
     2634    005334        INCCNT  XOPND
     2635    005336
     2636    005336        DEFER
     2637    005340        GENI    (MVN ,,)
     2638    005342        GENI    NDSC9,ROP
     2639    005344        GENI    NDSC4,XOPND
     2640    005346        WRAPUP
     2641    005350        MOVE    PCOM(XOPND),PCOM(ROPND)
     2642    005352        RTN
     2643    005353
     2644    005353 G2DESC_CONV_LOP      NULL
     2645    005353        GENI    NDSC9,ROP
     2646    005355        GENI    NDSC4,XOPND
     2647    005357        WRAPUP
     2648    005361
     2649    005361        ATTACH  XOPND
     2650    005363        QUIT
     2651    005364
     2652    005364 G2DESC_CONV_ROP      NULL
     2653    005364        GENI    NDSC9,LOP
     2654    005366        GENI    NDSC4,XOPND
     2655    005370        WRAPUP
     2656    005372
     2657    005372        ATTACH  XOPND
     2658    005374        QUIT
     2659    005375

PSEUDO CODE ASSEMBLER FOR COBOL85   FILE=Z8HP.:Z8A6TSI       TUE AUG 26 '97 07:51:54.60  PAGE  109
      ESN       ISN       TEXT

     2660    005375 G3DESC_OVP     NULL
     2661    005375        GENI    NDSC9,ROPND
     2662    005377        GENI    NDSC9,LOPND
     2663    005401        GENI    NDSC4,XOPND
     2664    005403        WRAPUP
     2665    005405
     2666    005405        ATTACH  XOPND
     2667    005407        QUIT
     2668    005410        PAGE

PSEUDO CODE ASSEMBLER FOR COBOL85   FILE=Z8HP.:Z8A6TSI       TUE AUG 26 '97 07:51:54.60  PAGE  110
      ESN       ISN       TEXT

     2669    005410 MVRR  START    PEPD
     2670    005410        WALK2
     2671    005412        ASSIGN  IND,FREE
     2672    005414        DSTATE  TYR4,LOPROP,XABS
     2673    005416        JMPDV   XABS,3
     2674    005420        JMP     $MVRRRR          {LOP=EA,ROP=EA .. NO MOVE}
     2675    005421        JMP     $MVRRRS          {LOP=EA,ROP=ST}
     2676    005422        JMP     $MVRRSR          {LOP=ST,ROP=EA}
     2677    005423        JMP     $MVRRSS          {LOP=ST,ROP=ST}
     2678    005424
     2679    005424 $MVRRRR NULL
     2680    005424        DECCNT LOP
     2681    005426        DECCNT ROP
     2682    005430        QUIT
     2683    005431
     2684    005431 $MVRRSR NULL
     2685    005431        DECCNT  ROP
     2686    005433        GENI    FSTR,LOP
     2687    005435        ASSIGN  AR(EA),USED
     2688    005437        QUIT
     2689    005440
     2690    005440 $MVRRRS NULL
     2691    005440 $MVRRSS NULL
     2692    005440        FAVOR   ROP,AR
     2693    005442        ASSIGN  AR(EAQ),FREE
     2694    005444        GENI    FLD,ROP
     2695    005446        GENI    FSTR,LOP
     2696    005450        ASSIGN  AR(EA),USED
     2697    005452        QUIT
     2698    005453        PAGE

PSEUDO CODE ASSEMBLER FOR COBOL85   FILE=Z8HP.:Z8A6TSI       TUE AUG 26 '97 07:51:54.60  PAGE  111
      ESN       ISN       TEXT

     2699    005453 MVQQ  START    PEPD
     2700    005453        WALK2
     2701    005455        ASSIGN  IND,FREE
     2702    005457        DSTATE  TYQ4,LOPROP,XABS
     2703    005461        JMPDV   XABS,3
     2704    005463        JMP     $MVQQRR          {LOP=EAQ,ROP=EAQ}
     2705    005464        JMP     $MVQQRS          {LOP=EAQ,ROP=ST}
     2706    005465        JMP     $MVQQSR          {LOP=ST ,ROP=EAQ}
     2707    005466        JMP     $MVQQSS          {LOP=ST ,ROP=ST}
     2708    005467
     2709    005467 $MVQQRR NULL
     2710    005467        DECCNT  LOP
     2711    005471        DECCNT  ROP
     2712    005473        QUIT
     2713    005474
     2714    005474 $MVQQSR NULL
     2715    005474        DECCNT  ROP
     2716    005476        GENI    DFSTR,LOP
     2717    005500        ASSIGN  AR(EAQ),USED
     2718    005502        QUIT
     2719    005503
     2720    005503 $MVQQRS NULL
     2721    005503 $MVQQSS NULL
     2722    005503        FAVOR   ROP,AR
     2723    005505        ASSIGN  AR(EAQ),FREE
     2724    005507        GENI    DFLD,ROP
     2725    005511        GENI    DFSTR,LOP
     2726    005513        ASSIGN  AR(EAQ),USED
     2727    005515        QUIT
     2728    005516        PAGE

PSEUDO CODE ASSEMBLER FOR COBOL85   FILE=Z8HP.:Z8A6TSI       TUE AUG 26 '97 07:51:54.60  PAGE  112
      ESN       ISN       TEXT

     2729    005516 ADR   START    PEPD
     2730    005516        WALK2
     2731    005520        DSTATE  TYR4,LOPROP,XABS
     2732    005522        JMPDV   XABS,3
     2733    005524        JMP     $ADRRR          {LOP=EA,ROP=EA}
     2734    005525        JMP     $ADRRS          {LOP=EA,ROP=ST}
     2735    005526        JMP     $ADRSR          {LOP=ST,ROP=EA}
     2736    005527        JMP     $ADRSS          {LOP=ST,ROP=ST}
     2737    005530
     2738    005530 $ADRRR NULL
     2739    005530        DECCNT  LOP
     2740    005532        DECCNT  ROP
     2741    005534        ASSIGN  AR(EA),FREE
     2742    005536        GENI    (ADE 1024,DU)
     2743    005540        ASSIGN  AR(EA),USED
     2744    005542        QUIT
     2745    005543
     2746    005543 $ADRRS NULL
     2747    005543        FAVOR   ROP,ARQ
     2748    005545        DECCNT  LOP
     2749    005547        ASSIGN  AR(EAQ),FREE
     2750    005551        GENI    FAD,ROP
     2751    005553        ASSIGN  AR(EA),USED
     2752    005555        QUIT
     2753    005556
     2754    005556 $ADRSR NULL
     2755    005556        FAVOR   LOP,ARQ
     2756    005560        DECCNT  ROP
     2757    005562        ASSIGN  AR(EAQ),FREE
     2758    005564        GENI    FAD,LOP
     2759    005566        ASSIGN  AR(EA),USED
     2760    005570        QUIT
     2761    005571

PSEUDO CODE ASSEMBLER FOR COBOL85   FILE=Z8HP.:Z8A6TSI       TUE AUG 26 '97 07:51:54.60  PAGE  113
      ESN       ISN       TEXT

     2762    005571 $ADRSS NULL
     2763    005571        FAVOR   LOP,AR
     2764    005573        ASSIGN  AR(EAQ),FREE
     2765    005575        GENI    FLD,LOP
     2766    005577        GENI    FAD,ROP
     2767    005601        ASSIGN  AR(EA),USED
     2768    005603        QUIT
     2769    005604        PAGE

PSEUDO CODE ASSEMBLER FOR COBOL85   FILE=Z8HP.:Z8A6TSI       TUE AUG 26 '97 07:51:54.60  PAGE  114
      ESN       ISN       TEXT

     2770    005604 SBR   START    PEPD
     2771    005604        WALK2
     2772    005606        DSTATE  TYR4,LOPROP,XABS
     2773    005610        JMPDV   XABS,3
     2774    005612        JMP     $SBRRR                  {LOP=EA,ROP=EA}
     2775    005613        JMP     $SBRRS                  {LOP=EA,ROP=ST}
     2776    005614        JMP     $SBRSR                  {LOP=ST,ROP=EA}
     2777    005615        JMP     $SBRSS                  {LOP=ST,ROP=ST}
     2778    005616
     2779    005616 $SBRRR NULL
     2780    005616        DECCNT  LOP
     2781    005620        DECCNT  ROP
     2782    005622        ASSIGN  AR(EAQ),FREE
     2783    005624        MOVE    OCTAL(400000000000),PCOM(GABS)
     2784    005626        GENI    (FLD 0,DU)
     2785    005630        ASSIGN  AR(EA),USED
     2786    005632        QUIT
     2787    005633
     2788    005633 $SBRRS NULL
     2789    005633        FAVOR   ROP,ARQ
     2790    005635        DECCNT  LOP
     2791    005637        ASSIGN  AR(EAQ),FREE
     2792    005641        GENI    FSB,ROP
     2793    005643        ASSIGN  AR(EA),USED
     2794    005645        QUIT
     2795    005646
     2796    005646 $SBRSR NULL
     2797    005646        FAVOR   LOP,ARQ
     2798    005650        DECCNT  ROP
     2799    005652        ASSIGN  AR(EAQ),FREE
     2800    005654        GENI    FSB,LOP
     2801    005656        GENI    (FNEG 0)
     2802    005660        ASSIGN  AR(EA),USED

PSEUDO CODE ASSEMBLER FOR COBOL85   FILE=Z8HP.:Z8A6TSI       TUE AUG 26 '97 07:51:54.60  PAGE  115
      ESN       ISN       TEXT

     2803    005662        QUIT
     2804    005663
     2805    005663 $SBRSS NULL
     2806    005663        FAVOR   LOP,AR
     2807    005665        ASSIGN  AR(EAQ),FREE
     2808    005667        GENI    FLD,LOP
     2809    005671        GENI    FSB,ROP
     2810    005673        ASSIGN  AR(EA),USED
     2811    005675        QUIT
     2812    005676        PAGE

PSEUDO CODE ASSEMBLER FOR COBOL85   FILE=Z8HP.:Z8A6TSI       TUE AUG 26 '97 07:51:54.60  PAGE  116
      ESN       ISN       TEXT

     2813    005676 MPR  START    PEPD
     2814    005676        WALK2
     2815    005700        DSTATE  TYR4,LOPROP,XABS
     2816    005702        JMPDV   XABS,3
     2817    005704        JMP     $MPRRR                  {LOP=EA,ROP=EA}
     2818    005705        JMP     $MPRRS                  {LOP=EA,ROP=ST}
     2819    005706        JMP     $MPRSR                  {LOP=ST,ROP=EA}
     2820    005707        JMP     $MPRSS                  {LOP=ST,ROP=ST}
     2821    005710
     2822    005710 $MPRRR NULL
     2823    005710        STORE   ROP
     2824    005712        DECCNT  LOP
     2825    005714        ASSIGN  AR(EAQ),FREE
     2826    005716        GENI    FMP,ROP
     2827    005720        ASSIGN  AR(EA),USED
     2828    005722        QUIT
     2829    005723
     2830    005723 $MPRRS NULL
     2831    005723        FAVOR   ROP,ARQ
     2832    005725        DECCNT  LOP
     2833    005727        ASSIGN  AR(EAQ),FREE
     2834    005731        GENI    FMP,ROP
     2835    005733        ASSIGN  AR(EA),USED
     2836    005735        QUIT
     2837    005736
     2838    005736 $MPRSR NULL
     2839    005736        FAVOR   LOP,ARQ
     2840    005740        DECCNT  ROP
     2841    005742        ASSIGN  AR(EAQ),FREE
     2842    005744        GENI    FMP,LOP
     2843    005746        ASSIGN  AR(EA),USED
     2844    005750        QUIT
     2845    005751

PSEUDO CODE ASSEMBLER FOR COBOL85   FILE=Z8HP.:Z8A6TSI       TUE AUG 26 '97 07:51:54.60  PAGE  117
      ESN       ISN       TEXT

     2846    005751 $MPRSS NULL
     2847    005751        FAVOR   LOP,AR
     2848    005753        ASSIGN  AR(EAQ),FREE
     2849    005755        GENI    FLD,LOP
     2850    005757        GENI    FMP,ROP
     2851    005761        ASSIGN  AR(EA),USED
     2852    005763        QUIT
     2853    005764        PAGE

PSEUDO CODE ASSEMBLER FOR COBOL85   FILE=Z8HP.:Z8A6TSI       TUE AUG 26 '97 07:51:54.60  PAGE  118
      ESN       ISN       TEXT

     2854    005764 DVR   START    PEPD
     2855    005764        WALK2
     2856    005766        DSTATE  TYR4,LOPROP,XABS
     2857    005770        JMPDV   XABS,3
     2858    005772        JMP     $DVRRR                  {LOP=EA,ROP=EA}
     2859    005773        JMP     $DVRRS                  {LOP=EA,ROP=ST}
     2860    005774        JMP     $DVRSR                  {LOP=ST,ROP=EA}
     2861    005775        JMP     $DVRSS                  {LOP=ST,ROP=ST}
     2862    005776
     2863    005776 $DVRRR NULL
     2864    005776        DECCNT  LOP
     2865    006000        DECCNT  ROP
     2866    006002        ASSIGN  AR(EAQ),FREE
     2867    006004        MOVE    COMCOM(HEX),PCOM(XABS)
     2868    006006        SHIFTR  PCOM(XABS),DECIMAL(35)
     2869    006010        JMPDV   XABS,1
     2870    006012        JMP     $NHEX
     2871    006013       {JMP     $HEX}
     2872    006013 {$HEX  NULL}
     2873    006013        MOVE    OCTAL(002040000000),PCOM(GABS)
     2874    006015        JMP     $DVRR1
     2875    006016 $NHEX  NULL
     2876    006016        MOVE    OCTAL(002400000000),PCOM(GABS)
     2877    006020 $DVRR1 NULL
     2878    006020        GENI    (FLD 0,DU)
     2879    006022        ASSIGN  AR(EA),USED
     2880    006024        QUIT
     2881    006025
     2882    006025 $DVRRS NULL
     2883    006025        FAVOR   ROP,ARQ
     2884    006027        DECCNT  LOP
     2885    006031        ASSIGN  AR(EAQ),FREE
     2886    006033        GENI    FDV,ROP

PSEUDO CODE ASSEMBLER FOR COBOL85   FILE=Z8HP.:Z8A6TSI       TUE AUG 26 '97 07:51:54.60  PAGE  119
      ESN       ISN       TEXT

     2887    006035        ASSIGN  AR(EA),USED
     2888    006037        QUIT
     2889    006040
     2890    006040 $DVRSR NULL
     2891    006040        FAVOR   LOP,ARQ
     2892    006042        DECCNT  ROP
     2893    006044        ASSIGN  AR(EAQ),FREE
     2894    006046        GENI    FDI,LOP
     2895    006050        ASSIGN  AR(EA),USED
     2896    006052        QUIT
     2897    006053
     2898    006053 $DVRSS NULL
     2899    006053        FAVOR   LOP,AR
     2900    006055        ASSIGN  AR(EAQ),FREE
     2901    006057        GENI    FLD,LOP
     2902    006061        GENI    FDV,ROP
     2903    006063        ASSIGN  AR(EA),USED
     2904    006065        QUIT
     2905    006066        PAGE

PSEUDO CODE ASSEMBLER FOR COBOL85   FILE=Z8HP.:Z8A6TSI       TUE AUG 26 '97 07:51:54.60  PAGE  120
      ESN       ISN       TEXT

     2906    006066 USR   START    PEPD
     2907    006066        WALK    LOP
     2908    006070        DSTATE  TYR2,LOP,XABS
     2909    006072        JMPDV   XABS,1
     2910    006074        JMP     $USRR                   {LOP=EA}
     2911    006075        JMP     $USRS                   {LOP=ST}
     2912    006076
     2913    006076 $USRR  NULL
     2914    006076        DECCNT  LOP
     2915    006100        ASSIGN  AR(EAQ),FREE
     2916    006102        GENI    (FNEG 0)
     2917    006104        ASSIGN  AR(EA),USED
     2918    006106        QUIT
     2919    006107
     2920    006107 $USRS  NULL
     2921    006107        FAVOR   LOP,AR
     2922    006111        ASSIGN  AR(EAQ),FREE
     2923    006113        GENI    FLD,LOP
     2924    006115        GENI    (FNEG 0)
     2925    006117        ASSIGN  AR(EA),USED
     2926    006121        QUIT
     2927    006122        PAGE

PSEUDO CODE ASSEMBLER FOR COBOL85   FILE=Z8HP.:Z8A6TSI       TUE AUG 26 '97 07:51:54.60  PAGE  121
      ESN       ISN       TEXT

     2928    006122 EXDIO START    PEPD
     2929    006122        WALK2
     2930    006124        ALLOT   NEXT,TYI,FOPND,4,9
     2931    006126        INCCNT  FOPND,2
     2932    006130
     2933    006130        ALLOTD  XOPND
     2934    006132        INCCNT  XOPND,4
     2935    006134        INCCNT  LOP,2
     2936    006136
     2937    006136        GENI    STZ,FOPND
     2938    006140
     2939    006140        DEFER
     2940    006142        GENI    (MVN (0,0,0,N),(0,0,0,N))
     2941    006144        GENI    NDSC9,LOP
     2942    006146        GENI    NDSC9,XOPND
     2943    006150        WRAPUP
     2944    006152
     2945    006152        STORE   ROP
     2946    006154        ASSIGN  AR(A),FREE
     2947    006156        GENI    LCA,ROP
     2948    006160        NEWLAB  LOPND                   {AT00}
     2949    006162        GENI    TZE,LOPND               {AT00}
     2950    006164        NEWLAB  NOPND                   {LOOP}
     2951    006166        GENI    TMI,NOPND               {LOOP}
     2952    006170
     2953    006170
     2954    006170        NEWLAB  EOPND                   {EXP_NEG}
     2955    006172        DEFLAB  EOPND                   {EXP_NEG}
     2956    006174
     2957    006174        GENI    (NEG)
     2958    006176        GENI    AOS,FOPND
     2959    006200
     2960    006200

PSEUDO CODE ASSEMBLER FOR COBOL85   FILE=Z8HP.:Z8A6TSI       TUE AUG 26 '97 07:51:54.60  PAGE  122
      ESN       ISN       TEXT

     2961    006200        DEFLAB  NOPND
     2962    006202        GENI    (ADA 1,DL)
     2963    006204        NEWLAB  YOPND                   {DONE}
     2964    006206        GENI    TZE,YOPND               {DONE}
     2965    006210
     2966    006210        DEFER
     2967    006212        GENI    (MP2D (0,0,0,N),(0,0,0,N))
     2968    006214        GENI    NDSC9,LOP
     2969    006216        GENI    NDSC9,XOPND
     2970    006220        WRAPUP
     2971    006222
     2972    006222        GENI    TRA,NOPND               {LOOP}
     2973    006224
     2974    006224
     2975    006224        DEFLAB  LOPND
     2976    006226
     2977    006226        MOVE    COMCOM(DECZIP),PCOM(ZOPND)
     2978    006230        WALK    ZOPND
     2979    006232
     2980    006232        DEFER
     2981    006234        GENI    (CMPN (0,0,0,N),(0,0,0,N))
     2982    006236        GENI    NDSC9,ZOPND                 {constant zero}
     2983    006240        GENI    NDSC9,LOP
     2984    006242        WRAPUP
     2985    006244
     2986    006244        GENI    (TZE 0)                 {ZOPND    OPERATOR SEGMENT}
     2987    006246
     2988    006246        MOVE    COMCOM(DECONE),PCOM(ZOPND)
     2989    006250        WALK    ZOPND
     2990    006252
     2991    006252        DEFER
     2992    006254        GENI    (MVN (0,0,0,N),(0,0,0,N))
     2993    006256        GENI    NDSC9,ZOPND                {constant one}
     2994    006260        GENI    NDSC9,XOPND

PSEUDO CODE ASSEMBLER FOR COBOL85   FILE=Z8HP.:Z8A6TSI       TUE AUG 26 '97 07:51:54.60  PAGE  123
      ESN       ISN       TEXT

     2995    006262        WRAPUP
     2996    006264
     2997    006264
     2998    006264        DEFLAB  YOPND
     2999    006266
     3000    006266        GENI    SZN,FOPND
     3001    006270
     3002    006270        NEWLAB  ROPND                   {OK}
     3003    006272        GENI    TZE,ROPND               {OK}
     3004    006274
     3005    006274        MOVE    COMCOM(DECONE),PCOM(ZOPND)
     3006    006276        WALK    ZOPND
     3007    006300
     3008    006300        DEFER
     3009    006302        GENI    (DV3D (0,0,0,N),(0,0,0,N),(0,0,0,N))
     3010    006304        GENI    NDSC9,XOPND
     3011    006306        GENI    NDSC9,ZOPND                 {constant one}
     3012    006310        GENI    NDSC9,XOPND
     3013    006312        WRAPUP
     3014    006314
     3015    006314
     3016    006314        DEFLAB  ROPND
     3017    006316        QUIT
     3018    006317        PAGE

PSEUDO CODE ASSEMBLER FOR COBOL85   FILE=Z8HP.:Z8A6TSI       TUE AUG 26 '97 07:51:54.60  PAGE  124
      ESN       ISN       TEXT

     3019    006317 MVIH  START    PEPD
     3020    006317        WALK2
     3021    006321        ASSIGN  IND,FREE
     3022    006323        MOVE    ILL(CODE),PCOM(CABS)
     3023    006325        AND     OCTAL(000000777777),PCOM(CABS)
     3024    006327
     3025    006327        CASE    XABS
     3026    006331        JMPDV   XABS,1
     3027    006333        JMP     $MVIHX                   {XRn Contained}
     3028    006334
     3029    006334 $MVIH01 NULL
     3030    006334        DSTATE  TYI4,ROP,XABS
     3031    006336        JMPDV   XABS,3
     3032    006340        JMP     $MVIHA
     3033    006341        JMP     $MVIHQ
     3034    006342        JMP     $MVIHX
     3035    006343        JMP     $MVIHS
     3036    006344
     3037    006344 $MVIHA  NULL
     3038    006344 $MVIHQ  NULL
     3039    006344        JMPDV   CABS,2
     3040    006346        JMP     $MVIHAU
     3041    006347        JMP     $MVIHAL                  {ROP=ARA, TO LOWER}
     3042    006350        JMP     $MVIHAN                  {ROP=ARA, TO NOT KNOWN}
     3043    006351
     3044    006351 $MVIHAU NULL
     3045    006351        ASSIGN  XR,FREE
     3046    006353        MAPT    AR(ROP),TAGMOD
     3047    006355        MAPT    XR,OPMOD
     3048    006357        GENI    (EAX0 0,N)
     3049    006361        ASSIGN  XR,USED,ROP
     3050    006363        MAPT    XR,OPMOD
     3051    006365        GENI    STX0,LOP

PSEUDO CODE ASSEMBLER FOR COBOL85   FILE=Z8HP.:Z8A6TSI       TUE AUG 26 '97 07:51:54.60  PAGE  125
      ESN       ISN       TEXT

     3052    006367        DECCNT  ROP
     3053    006371        ASSIGN  XR,USED,LOP
     3054    006373        QUIT
     3055    006374
     3056    006374 $MVIHAL NULL
     3057    006374        ASSIGN  XR,FREE
     3058    006376        MAPT    AR(ROP),TAGMOD
     3059    006400        MAPT    XR,OPMOD
     3060    006402        GENI    (EAX0 0,N)
     3061    006404        ASSIGN  XR,USED,ROP
     3062    006406        MAPT    XR,OPMOD
     3063    006410        GENI    SXL0,LOP
     3064    006412        DECCNT  ROP
     3065    006414        ASSIGN  XR,USED,LOP
     3066    006416        QUIT
     3067    006417
     3068    006417 $MVIHAN NULL
     3069    006417 $MVIHXN NULL
     3070    006417 $MVIHSN NULL
     3071    006417        STORE   ROP
     3072    006421        DEFER
     3073    006423        GENI    (MRL (0,0,0,N),(0,0,0,N))
     3074    006425        GENI    ADSC9,ROP
     3075    006427        GENI    ADSC9,LOP
     3076    006431        WRAPUP
     3077    006433        QUIT
     3078    006434
     3079    006434 $MVIHX  NULL
     3080    006434        JMPDV   CABS,2
     3081    006436        JMP     $MVIHXU
     3082    006437        JMP     $MVIHXL                  {ROP=XRn, TO LOWER}
     3083    006440        JMP     $MVIHXN                  {ROP=XRN, TO UNKNOWN}
     3084    006441
     3085    006441 $MVIHXU NULL

PSEUDO CODE ASSEMBLER FOR COBOL85   FILE=Z8HP.:Z8A6TSI       TUE AUG 26 '97 07:51:54.60  PAGE  126
      ESN       ISN       TEXT

     3086    006441        MAPT    XR(ROP),OPMOD
     3087    006443        GENI    STX0,LOP
     3088    006445        ASSIGN  AR(ROP),USED,LOP
     3089    006447        DECCNT  ROP
     3090    006451        QUIT
     3091    006452
     3092    006452 $MVIHXL NULL
     3093    006452        MAPT    XR(ROP),OPMOD
     3094    006454        GENI    SXL0,LOP
     3095    006456        ASSIGN  AR(ROP),USED,LOP
     3096    006460        DECCNT  ROP
     3097    006462        QUIT
     3098    006463
     3099    006463 $MVIHS  NULL
     3100    006463        JMPDV   CABS,2
     3101    006465        JMP     $MVIHSK                  {STORAGE, KNOWN}
     3102    006466        JMP     $MVIHSK                  {STORAGE, KNOWN}
     3103    006467        JMP     $MVIHSN                  {STORAGE, NOT KNOWN}
     3104    006470
     3105    006470 $MVIHSK NULL
     3106    006470        FAVOR   ROP,XR
     3107    006472        INCCNT  ROP
     3108    006474        ASSIGN  XR,FREE
     3109    006476        MAPT    XR,OPMOD
     3110    006500        GENI    LXL0,ROP
     3111    006502        ASSIGN  XR,USED,ROP
     3112    006504        JMP     $MVIHX
     3113    006505
     3114    006505        PAGE

PSEUDO CODE ASSEMBLER FOR COBOL85   FILE=Z8HP.:Z8A6TSI       TUE AUG 26 '97 07:51:54.60  PAGE  127
      ESN       ISN       TEXT

     3115    006505 CVDD  START    PEPD
     3116    006505        WALK    LOP
     3117    006507        ALLOTD  XOPND
     3118    006511        DEFER
     3119    006513        GENI    (MVN (0,0,0,N),(0,0,0,N))
     3120    006515        GENI    NDSC9,LOP
     3121    006517        GENI    NDSC9,XOPND
     3122    006521        WRAPUP
     3123    006523
     3124    006523        ATTACH  XOPND
     3125    006525        QUIT
     3126    006526        PAGE

PSEUDO CODE ASSEMBLER FOR COBOL85   FILE=Z8HP.:Z8A6TSI       TUE AUG 26 '97 07:51:54.60  PAGE  128
      ESN       ISN       TEXT

     3127    006526 CVAA   START   PEPD
     3128    006526        WALK    LOP
     3129    006530
     3130    006530        ALLOTD XOPND
     3131    006532
     3132    006532        DEFER
     3133    006534        GENI   (MLR ,,040)
     3134    006536        GENI   ADSC9,LOP
     3135    006540        GENI   ADSC9,XOPND
     3136    006542        WRAPUP
     3137    006544
     3138    006544        ATTACH XOPND
     3139    006546        QUIT
     3140    006547        PAGE

PSEUDO CODE ASSEMBLER FOR COBOL85   FILE=Z8HP.:Z8A6TSI       TUE AUG 26 '97 07:51:54.60  PAGE  129
      ESN       ISN       TEXT

     3141    006547 RNDD   START    PEPD
     3142    006547        WALK    LOP
     3143    006551        ALLOTD  XOPND
     3144    006553
     3145    006553        MOVE    OCTAL(000200000000),PCOM(GABS)
     3146    006555
     3147    006555        DEFER
     3148    006557        GENI    (MVN (0,0,0,N),(0,0,0,N))
     3149    006561        GENI    NDSC9,LOP
     3150    006563        GENI    NDSC9,XOPND
     3151    006565        WRAPUP
     3152    006567
     3153    006567        ATTACH  XOPND
     3154    006571        QUIT
     3155    006572        PAGE

PSEUDO CODE ASSEMBLER FOR COBOL85   FILE=Z8HP.:Z8A6TSI       TUE AUG 26 '97 07:51:54.60  PAGE  130
      ESN       ISN       TEXT

     3156    006572 RNDO   START    PEPD
     3157    006572        WALK    LOP
     3158    006574        ALLOTD  XOPND
     3159    006576
     3160    006576        MOVE    OCTAL(000200000000),PCOM(GABS)
     3161    006600
     3162    006600        DEFER
     3163    006602        GENI    (MVNX ,,1,0)
     3164    006604        GENI    NDSC9,LOP
     3165    006606        GENI    NDSC9,XOPND
     3166    006610        WRAPUP
     3167    006612
     3168    006612        ATTACH  XOPND
     3169    006614        QUIT
     3170    006615        PAGE

PSEUDO CODE ASSEMBLER FOR COBOL85   FILE=Z8HP.:Z8A6TSI       TUE AUG 26 '97 07:51:54.60  PAGE  131
      ESN       ISN       TEXT

     3171    006615 RNDR   START   PEPD
     3172    006615        ASSIGN  AR(EA),FREE
     3173    006617        GENI    (FRD 0)
     3174    006621        ASSIGN  AR(EA),USED
     3175    006623        QUIT
     3176    006624
     3177    006624        PAGE

PSEUDO CODE ASSEMBLER FOR COBOL85   FILE=Z8HP.:Z8A6TSI       TUE AUG 26 '97 07:51:54.60  PAGE  132
      ESN       ISN       TEXT

     3178    006624 RNDQ   START   PEPD
     3179    006624        ASSIGN  AR(EAQ),FREE
     3180    006626        GENI    (DFRD 0)
     3181    006630        ASSIGN  AR(EAQ),USED
     3182    006632        QUIT
     3183    006633
     3184    006633        PAGE

PSEUDO CODE ASSEMBLER FOR COBOL85   FILE=Z8HP.:Z8A6TSI       TUE AUG 26 '97 07:51:54.60  PAGE  133
      ESN       ISN       TEXT

     3185    006633 TRN   START    PEPD
     3186    006633        PAGE

PSEUDO CODE ASSEMBLER FOR COBOL85   FILE=Z8HP.:Z8A6TSI       TUE AUG 26 '97 07:51:54.60  PAGE  134
      ESN       ISN       TEXT

     3187    006633 CMPD  START    PEPD
     3188    006633        WALK2
     3189    006635        ASSIGN  IND,FREE
     3190    006637        DEFER
     3191    006641        GENI    (CMPN (0,0,0,N),(0,0,0,N))
     3192    006643        GENI    NDSC9,ROP
     3193    006645        GENI    NDSC9,LOP
     3194    006647        WRAPUP
     3195    006651        ASSIGN  IND,USED
     3196    006653        QUIT
     3197    006654        PAGE

PSEUDO CODE ASSEMBLER FOR COBOL85   FILE=Z8HP.:Z8A6TSI       TUE AUG 26 '97 07:51:54.60  PAGE  135
      ESN       ISN       TEXT

     3198    006654 CMPO  START    PEPD
     3199    006654        WALK2
     3200    006656        ASSIGN  IND,FREE
     3201    006660        CASE    GABS
     3202    006662        DEFER
     3203    006664        GENI    (CMPNX (0,0,0,N),(0,0,0,N))
     3204    006666        GENI    NDSC9,ROP
     3205    006670        GENI    NDSC9,LOP
     3206    006672        WRAPUP
     3207    006674        ASSIGN  IND,USED
     3208    006676        QUIT
     3209    006677        PAGE

PSEUDO CODE ASSEMBLER FOR COBOL85   FILE=Z8HP.:Z8A6TSI       TUE AUG 26 '97 07:51:54.60  PAGE  136
      ESN       ISN       TEXT

     3210    006677 CMPA  START    PEPD
     3211    006677        WALK2
     3212    006701        ASSIGN  IND,FREE
     3213    006703        MOVE    COMCOM(FILL),PCOM(GABS)
     3214    006705        DEFER
     3215    006707        GENI    (CMPC ,,000)
     3216    006711        GENI    ADSC9,LOP
     3217    006713        GENI    ADSC9,ROP
     3218    006715        WRAPUP
     3219    006717        ASSIGN  IND,USED
     3220    006721        QUIT
     3221    006722        PAGE

PSEUDO CODE ASSEMBLER FOR COBOL85   FILE=Z8HP.:Z8A6TSI       TUE AUG 26 '97 07:51:54.60  PAGE  137
      ESN       ISN       TEXT

     3222    006722 CMPAO START    PEPD
     3223    006722        WALK2
     3224    006724        ASSIGN  IND,FREE
     3225    006726        CASE    CABS,GABS,OABS,ROPND
     3226    006730        JMPDV   CABS,66
     3227    006732        JMP     $OP00_S
     3228    006733        JMP     $OP00_L
     3229    006734        JMP     $OP00_R
     3230    006735        JMP     $OP01_S
     3231    006736        JMP     $OP01_L
     3232    006737        JMP     $OP01_LA
     3233    006740        JMP     $OP02_S
     3234    006741        JMP     $OP02_RA
     3235    006742        JMP     $OP02_R
     3236    006743        JMP     $OP03_S
     3237    006744        JMP     $OP03_L
     3238    006745        JMP     $OP03_R
     3239    006746        JMP     $OP04_S
     3240    006747        JMP     $OP04_L
     3241    006750        JMP     $OP04_R
     3242    006751        JMP     $OP05_S
     3243    006752        JMP     $OP05_L
     3244    006753        JMP     $OP05_R
     3245    006754        JMP     $OP06_S
     3246    006755        JMP     $OP06_L
     3247    006756        JMP     $OP06_R
     3248    006757        JMP     $OP07_S
     3249    006760        JMP     $OP07_L
     3250    006761        JMP     $OP07_R
     3251    006762        JMP     $OP08_S
     3252    006763        JMP     $OP08_L
     3253    006764        JMP     $OP08_R
     3254    006765        JMP     $OP09_S

PSEUDO CODE ASSEMBLER FOR COBOL85   FILE=Z8HP.:Z8A6TSI       TUE AUG 26 '97 07:51:54.60  PAGE  138
      ESN       ISN       TEXT

     3255    006766        JMP     $OP09_L
     3256    006767        JMP     $OP09_R
     3257    006770        JMP     $OP10_S
     3258    006771        JMP     $OP10_L
     3259    006772        JMP     $OP10_R
     3260    006773        JMP     $OP11_S
     3261    006774        JMP     $OP11_L
     3262    006775        JMP     $OP11_R
     3263    006776        JMP     $OP12_S
     3264    006777        JMP     $OP12_L
     3265    007000        JMP     $OP12_R
     3266    007001        JMP     $OP13_S
     3267    007002        JMP     $OP13_L
     3268    007003        JMP     $OP13_R
     3269    007004        JMP     $OP14_S
     3270    007005        JMP     $OP14_L
     3271    007006        JMP     $OP14_R
     3272    007007        JMP     $OP15_S
     3273    007010        JMP     $OP15_L
     3274    007011        JMP     $OP15_R
     3275    007012        JMP     $OP16_S
     3276    007013        JMP     $OP15_L_R
     3277    007014        JMP     $OP13_L_R
     3278    007015        JMP     $OP17_S
     3279    007016        JMP     $OP00_LA
     3280    007017        JMP     $OP03_LA
     3281    007020        JMP     $OP09_RC
     3282    007021        JMP     $OP10_RC
     3283    007022        JMP     $OP11_RC
     3284    007023        JMP     $OP12_RC
     3285    007024        JMP     $OP14_RC
     3286    007025        JMP     $OP15_RC
     3287    007026        JMP     $OP09_LC
     3288    007027        JMP     $OP10_LC

PSEUDO CODE ASSEMBLER FOR COBOL85   FILE=Z8HP.:Z8A6TSI       TUE AUG 26 '97 07:51:54.60  PAGE  139
      ESN       ISN       TEXT

     3289    007030        JMP     $OP11_LC
     3290    007031        JMP     $OP12_LC
     3291    007032        JMP     $OP14_LC
     3292    007033        JMP     $OP15_LC
     3293    007034        JMP     $OPEQ
     3294    007035
     3295    007035 $OP00_S NULL {%MVANO_UPPER_TO_UPPER, neither in reg}
     3296    007035        ASSIGN  XR,FREE
     3297    007037        MAPT    XR,OPMOD,2
     3298    007041        GENI    LDX0,LOP
     3299    007043        ASSIGN  XR,USED,LOP
     3300    007045        GENI    CMPX0,ROPND
     3301    007047        ASSIGN  IND,USED
     3302    007051        QUIT
     3303    007052
     3304    007052 $OP00_LA NULL {%MVANO_UPPER_TO_UPPER, LOP in A or Q}
     3305    007052        ASSIGN XR,FREE
     3306    007054        MAPT    XR,OPMOD
     3307    007056        GENI    (EAX0 0,N)
     3308    007060        ASSIGN  LOP,TO,XR
     3309    007062        JMP     $OP00_L
     3310    007063 $OP01_LA NULL {%MVANO_UPPER_TO_LOWER, LOP in A or Q}
     3311    007063        GOSUB   L_TOXR
     3312    007064 $OP00_L NULL {%MVANO_UPPER_TO_UPPER, LOP in XR}
     3313    007064 $OP01_L NULL {%MVANO_UPPER_TO_LOWER, LOP in XR}
     3314    007064        MAPT    XR(LOP),OPMOD
     3315    007066        GENI    CMPX0,ROPND
     3316    007070        DECCNT  LOP
     3317    007072        ASSIGN  IND,USED
     3318    007074        QUIT
     3319    007075
     3320    007075 $OP02_RA NULL {%MVANO_LOWER_TO_UPPER, ROPND in A or Q}
     3321    007075        ASSIGN  XR,FREE
     3322    007077        MAPT    XR,OPMOD

PSEUDO CODE ASSEMBLER FOR COBOL85   FILE=Z8HP.:Z8A6TSI       TUE AUG 26 '97 07:51:54.60  PAGE  140
      ESN       ISN       TEXT

     3323    007101        MAPT    AR(ROPND),TAGMOD
     3324    007103        GENI    (EAX0 0,N)
     3325    007105        ASSIGN  ROPND,TO,XR
     3326    007107 $OP00_R NULL {%MVANO_UPPER_TO_UPPER, ROPND in XR}
     3327    007107 $OP02_R NULL {%MVANO_LOWER_TO_UPPER, ROPND in XR}
     3328    007107        MAPT    XR(ROPND),OPMOD
     3329    007111        GENI    CMPX0,LOP
     3330    007113        DECCNT  ROPND
     3331    007115        ASSIGN  IND,USED
     3332    007117        QUIT
     3333    007120
     3334    007120 $OP01_S NULL {%MVANO_UPPER_TO_LOWER, neither in reg}
     3335    007120        ASSIGN  XR,FREE
     3336    007122        MAPT    XR,OPMOD,2
     3337    007124        GENI    LXL0,LOP
     3338    007126        ASSIGN  XR,USED,LOP
     3339    007130        GENI    CMPX0,ROPND
     3340    007132        ASSIGN  IND,USED
     3341    007134        QUIT
     3342    007135
     3343    007135 $OP02_S NULL {%MVANO_LOWER_TO_UPPER, neither in reg}
     3344    007135        ASSIGN  XR,FREE
     3345    007137        MAPT    XR,OPMOD,2
     3346    007141        GENI    LXL0,ROPND
     3347    007143        ASSIGN  XR,USED,ROPND
     3348    007145        GENI    CMPX0,LOP
     3349    007147        ASSIGN  IND,USED
     3350    007151        QUIT
     3351    007152
     3352    007152 $OP03_S NULL {%MVANO_LOWER_TO_LOWER, neither in reg}
     3353    007152        ASSIGN  XR,FREE
     3354    007154        MAPT    XR,OPMOD,4
     3355    007156        GENI    LXL0,ROPND
     3356    007160        ALLOT   NEXT,TYI,XOPND,4,9,PURE

PSEUDO CODE ASSEMBLER FOR COBOL85   FILE=Z8HP.:Z8A6TSI       TUE AUG 26 '97 07:51:54.60  PAGE  141
      ESN       ISN       TEXT

     3357    007162        GENI    STX0,XOPND
     3358    007164        GENI    LXL0,LOP
     3359    007166        ASSIGN  XR,USED,LOP
     3360    007170        GENI    CMPX0,XOPND
     3361    007172        ASSIGN  IND,USED
     3362    007174        QUIT
     3363    007175
     3364    007175 $OP03_LA NULL {%MVANO_LOWER_TO_LOWER, LOP in A or Q}
     3365    007175        GOSUB   L_TOXR
     3366    007176 $OP03_L NULL {%MVANO_LOWER_TO_LOWER, LOP in XR}
     3367    007176        ALLOT   NEXT,TYI,LOPND,4,9,PURE
     3368    007200        MAPT    XR(LOP),OPMOD
     3369    007202        GENI    STX0,LOPND
     3370    007204        ASSIGN  XR,FREE
     3371    007206        MAPT    XR,OPMOD,2
     3372    007210        GENI    LXL0,ROPND
     3373    007212        ASSIGN  XR,USED,ROPND
     3374    007214        GENI    CMPX0,LOPND
     3375    007216        DECCNT  LOP
     3376    007220        ASSIGN  IND,USED
     3377    007222        QUIT
     3378    007223
     3379    007223 $OP03_R NULL {%MVANO_LOWER_TO_LOWER, ROPND in XR}
     3380    007223        ALLOT   NEXT,TYI,XOPND,4,9,PURE
     3381    007225        MAPT    XR(ROPND),OPMOD
     3382    007227        GENI    STX0,XOPND
     3383    007231        ASSIGN  XR,FREE
     3384    007233        MAPT    XR,OPMOD,2
     3385    007235        GENI    LXL0,LOP
     3386    007237        ASSIGN  XR,USED,LOP
     3387    007241        GENI    CMPX0,XOPND
     3388    007243        DECCNT  ROPND
     3389    007245        ASSIGN  IND,USED
     3390    007247        QUIT

PSEUDO CODE ASSEMBLER FOR COBOL85   FILE=Z8HP.:Z8A6TSI       TUE AUG 26 '97 07:51:54.60  PAGE  142
      ESN       ISN       TEXT

     3391    007250
     3392    007250 $OP04_S NULL {%MVANO_WORD_TO_WORD, neither in reg}
     3393    007250        ASSIGN  AR,FREE
     3394    007252        MAPT    AR,OPMOD,2
     3395    007254        GENI    LDA,LOP
     3396    007256        ASSIGN  AR,USED,LOP
     3397    007260        GENI    CMPA,ROPND
     3398    007262        ASSIGN  IND,USED
     3399    007264        QUIT
     3400    007265
     3401    007265 $OP04_L NULL {%MVANO_WORD_TO_WORD, LOP in XR}
     3402    007265        MAPT    AR(LOP),OPMOD
     3403    007267        GENI    CMPA,ROPND
     3404    007271        DECCNT  LOP
     3405    007273        ASSIGN  IND,USED
     3406    007275        QUIT
     3407    007276
     3408    007276 $OP04_R NULL {%MVANO_WORD_TO_WORD, ROPND in XR}
     3409    007276        MAPT    AR(ROPND),OPMOD
     3410    007300        GENI    CMPA,LOP
     3411    007302        DECCNT  ROPND
     3412    007304        ASSIGN  IND,USED
     3413    007306        QUIT
     3414    007307
     3415    007307 $OP05_S NULL {%MVANO_EVEN_TO_EVEN, neither in reg}
     3416    007307        ASSIGN  AR(AQ),FREE
     3417    007311        GENI    LDAQ,LOP
     3418    007313        ASSIGN  AR(AQ),USED,LOP
     3419    007315        GENI    CMPAQ,ROPND
     3420    007317        ASSIGN  IND,USED
     3421    007321        QUIT
     3422    007322
     3423    007322 $OP05_L NULL {%MVANO_EVEN_TO_EVEN, LOP in AQ}
     3424    007322 $OP06_L NULL {%MVANO_EVEN_TO_ODD, LOP in AQ}

PSEUDO CODE ASSEMBLER FOR COBOL85   FILE=Z8HP.:Z8A6TSI       TUE AUG 26 '97 07:51:54.60  PAGE  143
      ESN       ISN       TEXT

     3425    007322        GENI    CMPAQ,ROPND
     3426    007324        DECCNT  LOP
     3427    007326        ASSIGN  IND,USED
     3428    007330        QUIT
     3429    007331
     3430    007331 $OP05_R NULL {%MVANO_EVEN_TO_EVEN, ROPND in AQ}
     3431    007331 $OP07_R NULL {%MVANO_ODD_TO_EVEN, ROPND in AQ}
     3432    007331        GENI    CMPAQ,LOP
     3433    007333        DECCNT  ROPND
     3434    007335        ASSIGN  IND,USED
     3435    007337        QUIT
     3436    007340
     3437    007340 $OP06_S NULL {%MVANO_EVEN_TO_ODD, neither in reg}
     3438    007340        ASSIGN  AR(AQ),FREE
     3439    007342        OFFSET  LOP,OABS,LOPND
     3440    007344        GENI    LDA,LOP
     3441    007346        GENI    LDQ,LOPND
     3442    007350        ASSIGN  AR(AQ),USED,LOP
     3443    007352        GENI    CMPAQ,ROPND
     3444    007354        ASSIGN  IND,USED
     3445    007356        QUIT
     3446    007357
     3447    007357 $OP06_R NULL {%MVANO_EVEN_TO_ODD, ROPND in AQ}
     3448    007357 $OP08_R NULL {%MVANO_ODD_TO_ODD, ROPND in AQ}
     3449    007357        NEWLAB  NOPND
     3450    007361        OFFSET  LOP,OABS,LOPND
     3451    007363        GENI    CMPA,LOP
     3452    007365        GENI    TNZ,NOPND
     3453    007367        GENI    CMPQ,LOPND
     3454    007371        DEFLAB  NOPND
     3455    007373        DECCNT  ROPND
     3456    007375        ASSIGN  IND,USED
     3457    007377        QUIT
     3458    007400

PSEUDO CODE ASSEMBLER FOR COBOL85   FILE=Z8HP.:Z8A6TSI       TUE AUG 26 '97 07:51:54.60  PAGE  144
      ESN       ISN       TEXT

     3459    007400 $OP07_S NULL {%MVANO_ODD_TO_EVEN, neither in reg}
     3460    007400        ASSIGN  AR(AQ),FREE
     3461    007402        OFFSET  ROPND,OABS,QOPND
     3462    007404        GENI    LDA,ROPND
     3463    007406        GENI    LDQ,QOPND
     3464    007410        ASSIGN  AR(AQ),USED,ROPND
     3465    007412        GENI    CMPAQ,LOP
     3466    007414        ASSIGN  IND,USED
     3467    007416        QUIT
     3468    007417
     3469    007417 $OP07_L NULL {%MVANO_ODD_TO_EVEN, LOP in AQ}
     3470    007417 $OP08_L NULL {%MVANO_ODD_TO_ODD, LOP in AQ}
     3471    007417        NEWLAB  NOPND
     3472    007421        OFFSET  ROPND,OABS,QOPND
     3473    007423        GENI    CMPA,ROPND
     3474    007425        GENI    TNZ,NOPND
     3475    007427        GENI    CMPQ,QOPND
     3476    007431        DEFLAB  NOPND
     3477    007433        DECCNT  LOP
     3478    007435        ASSIGN  IND,USED
     3479    007437        QUIT
     3480    007440
     3481    007440 $OP08_S NULL {%MVANO_ODD_TO_ODD, neither in reg}
     3482    007440        ASSIGN  AR,FREE
     3483    007442        NEWLAB  NOPND
     3484    007444        OFFSET  LOP,OABS,LOPND
     3485    007446        OFFSET  ROPND,OABS,QOPND
     3486    007450        MAPT    AR,OPMOD,2
     3487    007452        GENI    LDA,LOP
     3488    007454        GENI    CMPA,ROPND
     3489    007456        GENI    TNZ,NOPND
     3490    007460        MAPT    AR,OPMOD,2
     3491    007462        GENI    LDA,LOPND
     3492    007464        GENI    CMPA,QOPND

PSEUDO CODE ASSEMBLER FOR COBOL85   FILE=Z8HP.:Z8A6TSI       TUE AUG 26 '97 07:51:54.60  PAGE  145
      ESN       ISN       TEXT

     3493    007466        DEFLAB  NOPND
     3494    007470        ASSIGN  IND,USED
     3495    007472        QUIT
     3496    007473
     3497    007473 $OP09_S NULL {%MVANO_BYTE_0, neither in reg}
     3498    007473        ASSIGN  AR,FREE
     3499    007475        ALLOT   NEXT,TYI,XOPND,4,9
     3500    007477        MAPT    AR,OPMOD,6
     3501    007501        GENI    (LDA 511*512,DU)
     3502    007503        GENI    ANA,ROPND
     3503    007505        GENI    STA,XOPND
     3504    007507        GENI    (LDA 511*512,DU)
     3505    007511        GENI    ANA,LOP
     3506    007513        GENI    CMPA,XOPND
     3507    007515        ASSIGN  IND,USED
     3508    007517        QUIT
     3509    007520
     3510    007520 $OP09_L NULL {%MVANO_BYTE_0, LOP in reg}
     3511    007520        ALLOT   NEXT,TYI,XOPND,4,9
     3512    007522        MAPT    AR(LOP),OPMOD,5
     3513    007524        GENI    (ANA 511*512,DU)
     3514    007526        GENI    STA,XOPND
     3515    007530        ASSIGN  AR(LOP),FREE
     3516    007532        GENI    (LDA 511*512,DU)
     3517    007534        GENI    ANA,ROPND
     3518    007536        GENI    CMPA,XOPND
     3519    007540        DECCNT  LOP
     3520    007542        ASSIGN  IND,USED
     3521    007544        QUIT
     3522    007545
     3523    007545 $OP09_R NULL {%MVANO_BYTE_0, ROPND in reg}
     3524    007545        ALLOT   NEXT,TYI,XOPND,4,9
     3525    007547        MAPT    AR(ROPND),OPMOD,5
     3526    007551        GENI    (ANA 511*512,DU)

PSEUDO CODE ASSEMBLER FOR COBOL85   FILE=Z8HP.:Z8A6TSI       TUE AUG 26 '97 07:51:54.60  PAGE  146
      ESN       ISN       TEXT

     3527    007553        GENI    STA,XOPND
     3528    007555        ASSIGN  AR(ROPND),FREE
     3529    007557        GENI    (LDA 511*512,DU)
     3530    007561        GENI    ANA,LOP
     3531    007563        GENI    CMPA,XOPND
     3532    007565        DECCNT  ROPND
     3533    007567        ASSIGN  IND,USED
     3534    007571        QUIT
     3535    007572
     3536    007572 $OP09_LC NULL {%MVANO_BYTE_0, LOP is constant}
     3537    007572        ASSIGN  AR,FREE
     3538    007574        MAPT    AR,OPMOD,3
     3539    007576        GENI    (LDA 511*512,DU)
     3540    007600        GENI    ANA,ROPND
     3541    007602        GENI    CMPA,LOP
     3542    007604        ASSIGN  IND,USED
     3543    007606        QUIT
     3544    007607
     3545    007607 $OP09_RC NULL {%MVANO_BYTE_0, ROPND is constant}
     3546    007607        ASSIGN  AR,FREE
     3547    007611        MAPT    AR,OPMOD,3
     3548    007613        GENI    (LDA 511*512,DU)
     3549    007615        GENI    ANA,LOP
     3550    007617        GENI    CMPA,ROPND
     3551    007621        ASSIGN  IND,USED
     3552    007623        QUIT
     3553    007624
     3554    007624 $OP10_S NULL {%MVANO_BYTE_1, neither in reg}
     3555    007624        ASSIGN  AR,FREE
     3556    007626        ALLOT   NEXT,TYI,XOPND,4,9
     3557    007630        MAPT    AR,OPMOD,6
     3558    007632        GENI    (LDA 511,DU)
     3559    007634        GENI    ANA,ROPND
     3560    007636        GENI    STA,XOPND

PSEUDO CODE ASSEMBLER FOR COBOL85   FILE=Z8HP.:Z8A6TSI       TUE AUG 26 '97 07:51:54.60  PAGE  147
      ESN       ISN       TEXT

     3561    007640        GENI    (LDA 511,DU)
     3562    007642        GENI    ANA,LOP
     3563    007644        GENI    CMPA,XOPND
     3564    007646        ASSIGN  IND,USED
     3565    007650        QUIT
     3566    007651
     3567    007651 $OP10_L NULL {%MVANO_BYTE_1, LOP in reg}
     3568    007651        ALLOT   NEXT,TYI,XOPND,4,9
     3569    007653        MAPT    AR(LOP),OPMOD,5
     3570    007655        GENI    (ANA 511,DU)
     3571    007657        GENI    STA,XOPND
     3572    007661        ASSIGN  AR(LOP),FREE
     3573    007663        GENI    (LDA 511,DU)
     3574    007665        GENI    ANA,ROPND
     3575    007667        GENI    CMPA,XOPND
     3576    007671        DECCNT  LOP
     3577    007673        ASSIGN  IND,USED
     3578    007675        QUIT
     3579    007676
     3580    007676 $OP10_R NULL {%MVANO_BYTE_1, ROPND in reg}
     3581    007676        ALLOT   NEXT,TYI,XOPND,4,9
     3582    007700        MAPT    AR(ROPND),OPMOD,5
     3583    007702        GENI    (ANA 511,DU)
     3584    007704        GENI    STA,XOPND
     3585    007706        ASSIGN  AR(ROPND),FREE
     3586    007710        GENI    (LDA 511,DU)
     3587    007712        GENI    ANA,LOP
     3588    007714        GENI    CMPA,XOPND
     3589    007716        DECCNT  ROPND
     3590    007720        ASSIGN  IND,USED
     3591    007722        QUIT
     3592    007723
     3593    007723 $OP10_LC NULL {%MVANO_BYTE_0, LOP is constant}
     3594    007723        ASSIGN  AR,FREE

PSEUDO CODE ASSEMBLER FOR COBOL85   FILE=Z8HP.:Z8A6TSI       TUE AUG 26 '97 07:51:54.60  PAGE  148
      ESN       ISN       TEXT

     3595    007725        MAPT    AR,OPMOD,3
     3596    007727        GENI    (LDA 511,DU)
     3597    007731        GENI    ANA,ROPND
     3598    007733        GENI    CMPA,LOP
     3599    007735        ASSIGN  IND,USED
     3600    007737        QUIT
     3601    007740
     3602    007740 $OP10_RC NULL {%MVANO_BYTE_0, ROPND is constant}
     3603    007740        ASSIGN  AR,FREE
     3604    007742        MAPT    AR,OPMOD,3
     3605    007744        GENI    (LDA 511,DU)
     3606    007746        GENI    ANA,LOP
     3607    007750        GENI    CMPA,ROPND
     3608    007752        ASSIGN  IND,USED
     3609    007754        QUIT
     3610    007755
     3611    007755 $OP11_S NULL {%MVANO_BYTE_2, neither in reg}
     3612    007755        ASSIGN  AR,FREE
     3613    007757        ALLOT   NEXT,TYI,XOPND,4,9
     3614    007761        MAPT    AR,OPMOD,6
     3615    007763        GENI    (LDA 511*512,DL)
     3616    007765        GENI    ANA,ROPND
     3617    007767        GENI    STA,XOPND
     3618    007771        GENI    (LDA 511*512,DL)
     3619    007773        GENI    ANA,LOP
     3620    007775        GENI    CMPA,XOPND
     3621    007777        ASSIGN  IND,USED
     3622    010001        QUIT
     3623    010002
     3624    010002 $OP11_L NULL {%MVANO_BYTE_2, LOP in reg}
     3625    010002        ALLOT   NEXT,TYI,XOPND,4,9
     3626    010004        MAPT    AR(LOP),OPMOD,5
     3627    010006        GENI    (ANA 511*512,DL)
     3628    010010        GENI    STA,XOPND

PSEUDO CODE ASSEMBLER FOR COBOL85   FILE=Z8HP.:Z8A6TSI       TUE AUG 26 '97 07:51:54.60  PAGE  149
      ESN       ISN       TEXT

     3629    010012        ASSIGN  AR(LOP),FREE
     3630    010014        GENI    (LDA 511*512,DL)
     3631    010016        GENI    ANA,ROPND
     3632    010020        GENI    CMPA,XOPND
     3633    010022        DECCNT  LOP
     3634    010024        ASSIGN  IND,USED
     3635    010026        QUIT
     3636    010027
     3637    010027 $OP11_R NULL {%MVANO_BYTE_2, ROPND in reg}
     3638    010027        ALLOT   NEXT,TYI,XOPND,4,9
     3639    010031        MAPT    AR(ROPND),OPMOD,5
     3640    010033        GENI    (ANA 511*512,DL)
     3641    010035        GENI    STA,XOPND
     3642    010037        ASSIGN  AR(ROPND),FREE
     3643    010041        GENI    (LDA 511*512,DL)
     3644    010043        GENI    ANA,LOP
     3645    010045        GENI    CMPA,XOPND
     3646    010047        DECCNT  ROPND
     3647    010051        ASSIGN  IND,USED
     3648    010053        QUIT
     3649    010054
     3650    010054 $OP11_LC NULL {%MVANO_BYTE_0, LOP is constant}
     3651    010054        ASSIGN  AR,FREE
     3652    010056        MAPT    AR,OPMOD,3
     3653    010060        GENI    (LDA 511*512,DL)
     3654    010062        GENI    ANA,ROPND
     3655    010064        GENI    CMPA,LOP
     3656    010066        ASSIGN  IND,USED
     3657    010070        QUIT
     3658    010071
     3659    010071 $OP11_RC NULL {%MVANO_BYTE_0, ROPND is constant}
     3660    010071        ASSIGN  AR,FREE
     3661    010073        MAPT    AR,OPMOD,3
     3662    010075        GENI    (LDA 511*512,DL)

PSEUDO CODE ASSEMBLER FOR COBOL85   FILE=Z8HP.:Z8A6TSI       TUE AUG 26 '97 07:51:54.60  PAGE  150
      ESN       ISN       TEXT

     3663    010077        GENI    ANA,LOP
     3664    010101        GENI    CMPA,ROPND
     3665    010103        ASSIGN  IND,USED
     3666    010105        QUIT
     3667    010106
     3668    010106 $OP12_S NULL {%MVANO_BYTE_3, neither in reg}
     3669    010106        ASSIGN  AR,FREE
     3670    010110        ALLOT   NEXT,TYI,XOPND,4,9
     3671    010112        MAPT    AR,OPMOD,6
     3672    010114        GENI    (LDA 511,DL)
     3673    010116        GENI    ANA,ROPND
     3674    010120        GENI    STA,XOPND
     3675    010122        GENI    (LDA 511,DL)
     3676    010124        GENI    ANA,LOP
     3677    010126        GENI    CMPA,XOPND
     3678    010130        ASSIGN  IND,USED
     3679    010132        QUIT
     3680    010133
     3681    010133 $OP12_L NULL {%MVANO_BYTE_3, LOP in reg}
     3682    010133        ALLOT   NEXT,TYI,XOPND,4,9
     3683    010135        MAPT    AR(LOP),OPMOD,5
     3684    010137        GENI    (ANA 511,DL)
     3685    010141        GENI    STA,XOPND
     3686    010143        ASSIGN  AR(LOP),FREE
     3687    010145        GENI    (LDA 511,DL)
     3688    010147        GENI    ANA,ROPND
     3689    010151        GENI    CMPA,XOPND
     3690    010153        DECCNT  LOP
     3691    010155        ASSIGN  IND,USED
     3692    010157        QUIT
     3693    010160
     3694    010160 $OP12_R NULL {%MVANO_BYTE_3, ROPND in reg}
     3695    010160        ALLOT   NEXT,TYI,XOPND,4,9
     3696    010162        MAPT    AR(ROPND),OPMOD,5

PSEUDO CODE ASSEMBLER FOR COBOL85   FILE=Z8HP.:Z8A6TSI       TUE AUG 26 '97 07:51:54.60  PAGE  151
      ESN       ISN       TEXT

     3697    010164        GENI    (ANA 511,DL)
     3698    010166        GENI    STA,XOPND
     3699    010170        ASSIGN  AR(ROPND),FREE
     3700    010172        GENI    (LDA 511,DL)
     3701    010174        GENI    ANA,LOP
     3702    010176        GENI    CMPA,XOPND
     3703    010200        DECCNT  ROPND
     3704    010202        ASSIGN  IND,USED
     3705    010204        QUIT
     3706    010205
     3707    010205 $OP12_LC NULL {%MVANO_BYTE_0, LOP is constant}
     3708    010205        ASSIGN  AR,FREE
     3709    010207        MAPT    AR,OPMOD,3
     3710    010211        GENI    (LDA 511,DL)
     3711    010213        GENI    ANA,ROPND
     3712    010215        GENI    CMPA,LOP
     3713    010217        ASSIGN  IND,USED
     3714    010221        QUIT
     3715    010222
     3716    010222 $OP12_RC NULL {%MVANO_BYTE_0, ROPND is constant}
     3717    010222        ASSIGN  AR,FREE
     3718    010224        MAPT    AR,OPMOD,3
     3719    010226        GENI    (LDA 511,DL)
     3720    010230        GENI    ANA,LOP
     3721    010232        GENI    CMPA,ROPND
     3722    010234        ASSIGN  IND,USED
     3723    010236        QUIT
     3724    010237
     3725    010237 $OP13_S NULL {%MVANO_BYTES_1_2, neither in reg}
     3726    010237        ASSIGN  AR(AQ),FREE
     3727    010241        ALLOT   NEXT,TYI,XOPND,4,9
     3728    010243        GENI    LDA,LOP
     3729    010245        GENI    LDQ,ROPND
     3730    010247        GENI    (LLS 9)

PSEUDO CODE ASSEMBLER FOR COBOL85   FILE=Z8HP.:Z8A6TSI       TUE AUG 26 '97 07:51:54.60  PAGE  152
      ESN       ISN       TEXT

     3731    010251        GENI    (ANQ -1,DU)
     3732    010253        GENI    STQ,XOPND
     3733    010255        GENI    (ANA -1,DU)
     3734    010257        GENI    CMPA,XOPND
     3735    010261        ASSIGN  IND,USED
     3736    010263        QUIT
     3737    010264
     3738    010264 $OP13_L NULL {%MVANO_BYTES_1_2, LOP in reg}
     3739    010264        ALLOT   NEXT,TYI,XOPND,4,9
     3740    010266        ASSIGN  AR,FREE
     3741    010270        MAPT    AR,OPMOD
     3742    010272        GENI    LDA,ROPND
     3743    010274        GENI    (LLS 9)
     3744    010276        MAPT    AR,OPMOD,2
     3745    010300        GENI    (ANA -1,DU)
     3746    010302        GENI    STA,XOPND
     3747    010304        MAPT    AR(LOP),OPMOD,2
     3748    010306        GENI    (ANA -1,DU)
     3749    010310        GENI    CMPA,XOPND
     3750    010312        DECCNT  LOP
     3751    010314        ASSIGN  AR(AQ),FREE
     3752    010316        ASSIGN  IND,USED
     3753    010320        QUIT
     3754    010321
     3755    010321 $OP13_R NULL {%MVANO_BYTES_1_2, ROPND in reg}
     3756    010321        ALLOT   NEXT,TYI,XOPND,4,9
     3757    010323        ASSIGN  AR,FREE
     3758    010325        MAPT    AR,OPMOD
     3759    010327        GENI    LDA,LOP
     3760    010331        GENI    (LLS 9)
     3761    010333        MAPT    AR(ROPND),OPMOD,2
     3762    010335        GENI    (ANA -1,DU)
     3763    010337        GENI    STA,XOPND
     3764    010341        MAPT    AR,OPMOD,2

PSEUDO CODE ASSEMBLER FOR COBOL85   FILE=Z8HP.:Z8A6TSI       TUE AUG 26 '97 07:51:54.60  PAGE  153
      ESN       ISN       TEXT

     3765    010343        GENI    (ANA -1,DU)
     3766    010345        GENI    CMPA,XOPND
     3767    010347        DECCNT  ROPND
     3768    010351        ASSIGN  AR(AQ),FREE
     3769    010353        ASSIGN  IND,USED
     3770    010355        QUIT
     3771    010356
     3772    010356 $OP13_L_R NULL {%MVANO_BYTES_1_2, both in regs}
     3773    010356        ALLOT   NEXT,TYI,XOPND,4,9
     3774    010360        GENI    (LLS 9)
     3775    010362        MAPT    AR(ROPND),OPMOD,2
     3776    010364        GENI    (ANA -1,DU)
     3777    010366        GENI    STA,XOPND
     3778    010370        MAPT    AR(LOP),OPMOD,2
     3779    010372        GENI    (ANA -1,DU)
     3780    010374        GENI    CMPA,XOPND
     3781    010376        ASSIGN  AR(AQ),FREE
     3782    010400        DECCNT  LOP
     3783    010402        DECCNT  ROPND
     3784    010404        ASSIGN  IND,USED
     3785    010406        QUIT
     3786    010407
     3787    010407 $OP14_S NULL {%MVANO_BYTES_0_2, neither in reg}
     3788    010407        ASSIGN  AR,FREE
     3789    010411        ALLOT   NEXT,TYI,XOPND,4,9
     3790    010413        MAPT    AR,OPMOD,6
     3791    010415        GENI    (LCA 512,DL)
     3792    010417        GENI    ANA,ROPND
     3793    010421        GENI    STA,XOPND
     3794    010423        GENI    (LCA 512,DL)
     3795    010425        GENI    ANA,LOP
     3796    010427        GENI    CMPA,XOPND
     3797    010431        ASSIGN  IND,USED
     3798    010433        QUIT

PSEUDO CODE ASSEMBLER FOR COBOL85   FILE=Z8HP.:Z8A6TSI       TUE AUG 26 '97 07:51:54.60  PAGE  154
      ESN       ISN       TEXT

     3799    010434
     3800    010434 $OP14_R NULL {%MVANO_BYTES_0_2, ROPND in reg}
     3801    010434        ALLOT   NEXT,TYI,XOPND,4,9
     3802    010436        ALLOT   NEXT,TYI,NOPND,4,9,FRESH
     3803    010440        CASE                 {Set NOPND = '777777777000'O}
     3804    010442        MAPT    AR(ROPND),OPMOD,5
     3805    010444        GENI    ANA,NOPND
     3806    010446        GENI    STA,XOPND
     3807    010450        ASSIGN  AR(ROPND),FREE
     3808    010452        GENI    (LCA 512,DL)
     3809    010454        GENI    ANA,LOP
     3810    010456        GENI    CMPA,XOPND
     3811    010460        DECCNT  ROPND
     3812    010462        DECCNT  NOPND
     3813    010464        ASSIGN  IND,USED
     3814    010466        QUIT
     3815    010467
     3816    010467 $OP14_L NULL {%MVANO_BYTES_0_2, LOP in reg}
     3817    010467        ALLOT   NEXT,TYI,XOPND,4,9
     3818    010471        ALLOT   NEXT,TYI,NOPND,4,9,FRESH
     3819    010473        CASE                 {Set NOPND = '777777777000'O}
     3820    010475        MAPT    AR(LOP),OPMOD,5
     3821    010477        GENI    ANA,NOPND
     3822    010501        GENI    STA,XOPND
     3823    010503        ASSIGN  AR(LOP),FREE
     3824    010505        GENI    (LCA 512,DL)
     3825    010507        GENI    ANA,ROPND
     3826    010511        GENI    CMPA,XOPND
     3827    010513        DECCNT  LOP
     3828    010515        DECCNT  NOPND
     3829    010517        ASSIGN  IND,USED
     3830    010521        QUIT
     3831    010522
     3832    010522 $OP14_LC NULL {%MVANO_BYTES_0_2, LOP is constant}

PSEUDO CODE ASSEMBLER FOR COBOL85   FILE=Z8HP.:Z8A6TSI       TUE AUG 26 '97 07:51:54.60  PAGE  155
      ESN       ISN       TEXT

     3833    010522       ASSIGN  AR,FREE
     3834    010524       MAPT    AR,OPMOD,3
     3835    010526       GENI    (LCA 512,DL)
     3836    010530       GENI    ANA,ROPND
     3837    010532       GENI    CMPA,LOP
     3838    010534       ASSIGN  IND,USED
     3839    010536       QUIT
     3840    010537
     3841    010537 $OP14_RC NULL {%MVANO_BYTES_0_2, ROPND is constant}
     3842    010537       ASSIGN  AR,FREE
     3843    010541       MAPT    AR,OPMOD,3
     3844    010543       GENI    (LCA 512,DL)
     3845    010545       GENI    ANA,LOP
     3846    010547       GENI    CMPA,ROPND
     3847    010551       ASSIGN  IND,USED
     3848    010553       QUIT
     3849    010554
     3850    010554 $OP15_S NULL {%MVANO_BYTES_1_3, neither in reg}
     3851    010554        ALLOT   NEXT,TYI,XOPND,4,9
     3852    010556        ALLOT   NEXT,TYI,NOPND,4,9,FRESH
     3853    010560        CASE                 {Set NOPND = '777777777000'O}
     3854    010562        ASSIGN  AR(AQ),FREE
     3855    010564        GENI    LDA,ROPND
     3856    010566        GENI    LDQ,LOP
     3857    010570        GENI    (LLS 9)
     3858    010572        GENI    ANA,NOPND
     3859    010574        GENI    STA,XOPND
     3860    010576        GENI    CMPQ,XOPND
     3861    010600        ASSIGN  IND,USED
     3862    010602        DECCNT  NOPND
     3863    010604        QUIT
     3864    010605
     3865    010605 $OP15_L NULL {%MVANO_BYTES_1_3, LOP in reg}
     3866    010605        ALLOT   NEXT,TYI,XOPND,4,9

PSEUDO CODE ASSEMBLER FOR COBOL85   FILE=Z8HP.:Z8A6TSI       TUE AUG 26 '97 07:51:54.60  PAGE  156
      ESN       ISN       TEXT

     3867    010607        ALLOT   NEXT,TYI,NOPND,4,9,FRESH
     3868    010611        CASE                 {Set NOPND = '777777777000'O}
     3869    010613        ASSIGN  AR,FREE
     3870    010615        MAPT    AR,OPMOD
     3871    010617        GENI    LDA,ROPND
     3872    010621        GENI    (LLS 9)
     3873    010623        GENI    ANA,NOPND
     3874    010625        MAPT    AR,OPMOD
     3875    010627        GENI    STA,XOPND
     3876    010631        MAPT    AR(LOP),OPMOD
     3877    010633        GENI    CMPA,XOPND
     3878    010635        ASSIGN  AR(AQ),FREE
     3879    010637        DECCNT  LOP
     3880    010641        DECCNT  NOPND
     3881    010643        ASSIGN  IND,USED
     3882    010645        QUIT
     3883    010646
     3884    010646 $OP15_R NULL {%MVANO_BYTES_1_3, ROPND in reg}
     3885    010646        ALLOT   NEXT,TYI,XOPND,4,9
     3886    010650        ALLOT   NEXT,TYI,NOPND,4,9,FRESH
     3887    010652        CASE                 {Set NOPND = '777777777000'O}
     3888    010654        ASSIGN  AR,FREE
     3889    010656        MAPT    AR,OPMOD
     3890    010660        GENI    LDA,LOP
     3891    010662        GENI    (LLS 9)
     3892    010664        GENI    ANA,NOPND
     3893    010666        MAPT    AR(ROPND),OPMOD
     3894    010670        GENI    STA,XOPND
     3895    010672        MAPT    AR,OPMOD
     3896    010674        GENI    CMPA,XOPND
     3897    010676        ASSIGN  AR(AQ),FREE
     3898    010700        DECCNT  ROPND
     3899    010702        DECCNT  NOPND
     3900    010704        ASSIGN  IND,USED

PSEUDO CODE ASSEMBLER FOR COBOL85   FILE=Z8HP.:Z8A6TSI       TUE AUG 26 '97 07:51:54.60  PAGE  157
      ESN       ISN       TEXT

     3901    010706        QUIT
     3902    010707
     3903    010707 $OP15_L_R NULL {%MVANO_BYTES_1_3, both in regs}
     3904    010707        ALLOT   NEXT,TYI,XOPND,4,9
     3905    010711        ALLOT   NEXT,TYI,NOPND,4,9,FRESH
     3906    010713        CASE                 {Set NOPND = '777777777000'O}
     3907    010715        GENI    (LLS 9)
     3908    010717        GENI    ANA,NOPND
     3909    010721        MAPT    AR(ROPND),OPMOD
     3910    010723        GENI    STA,XOPND
     3911    010725        MAPT    AR(LOP),OPMOD
     3912    010727        GENI    CMPA,XOPND
     3913    010731        ASSIGN  AR(AQ),FREE
     3914    010733        DECCNT  LOP
     3915    010735        DECCNT  ROPND
     3916    010737        DECCNT  NOPND
     3917    010741        ASSIGN  IND,USED
     3918    010743        QUIT
     3919    010744
     3920    010744 $OP15_LC NULL {%MVANO_BYTES_1_3, LOP is constant}
     3921    010744        ALLOT   NEXT,TYI,NOPND,4,9,FRESH
     3922    010746        CASE                 {Set NOPND = '000777777777'O}
     3923    010750        ASSIGN  AR,FREE
     3924    010752        MAPT    AR,OPMOD,3
     3925    010754        GENI    LDA,ROPND
     3926    010756        GENI    ANA,NOPND
     3927    010760        GENI    CMPA,LOP
     3928    010762        DECCNT  NOPND
     3929    010764        ASSIGN  IND,USED
     3930    010766        QUIT
     3931    010767
     3932    010767 $OP15_RC NULL {%MVANO_BYTES_1_3, ROPND is constant}
     3933    010767        ALLOT   NEXT,TYI,NOPND,4,9,FRESH
     3934    010771        CASE                 {Set NOPND = '000777777777'O}

PSEUDO CODE ASSEMBLER FOR COBOL85   FILE=Z8HP.:Z8A6TSI       TUE AUG 26 '97 07:51:54.60  PAGE  158
      ESN       ISN       TEXT

     3935    010773        ASSIGN  AR,FREE
     3936    010775        MAPT    AR,OPMOD,3
     3937    010777        GENI    LDA,LOP
     3938    011001        GENI    ANA,NOPND
     3939    011003        GENI    CMPA,ROPND
     3940    011005        DECCNT  NOPND
     3941    011007        ASSIGN  IND,USED
     3942    011011        QUIT
     3943    011012
     3944    011012 $OP16_S NULL {%MVANO_BYTES_0_1, ROPND in reg}
     3945    011012        ASSIGN  XR,FREE
     3946    011014        MAPT    XR,OPMOD
     3947    011016        GENI    (EAX0 0,N)          {,AU or ,QU depending on GABS}
     3948    011020        MAPT    XR,OPMOD
     3949    011022        GENI    CMPX0,LOP
     3950    011024        DECCNT  ROPND
     3951    011026        ASSIGN  IND,USED
     3952    011030        QUIT
     3953    011031
     3954    011031 $OP17_S NULL {%MVANO_BYTES_2_3, ROPND in reg}
     3955    011031        ALLOT   NEXT,TYI,XOPND,4,9
     3956    011033        MAPT    AR(ROPND),OPMOD,5
     3957    011035        GENI    (ANA -1,DL)
     3958    011037        GENI    STA,XOPND
     3959    011041        GENI    (LDA -1,DL)
     3960    011043        GENI    ANA,LOP
     3961    011045        GENI    CMPA,XOPND
     3962    011047        DECCNT  ROPND
     3963    011051        ASSIGN  AR(ROPND),FREE
     3964    011053        ASSIGN  IND,USED
     3965    011055        QUIT
     3966    011056
     3967    011056 $OPEQ  NULL {both operands in same reg}
     3968    011056        GENI    (SZN 0,DU)

PSEUDO CODE ASSEMBLER FOR COBOL85   FILE=Z8HP.:Z8A6TSI       TUE AUG 26 '97 07:51:54.60  PAGE  159
      ESN       ISN       TEXT

     3969    011060        DECCNT  LOP
     3970    011062        DECCNT  ROPND
     3971    011064        ASSIGN  IND,USED
     3972    011066        QUIT
     3973    011067 CMPAS START    PEPD
     3974    011067        WALK    LOP
     3975    011071        QUIT
     3976    011072        PAGE

PSEUDO CODE ASSEMBLER FOR COBOL85   FILE=Z8HP.:Z8A6TSI       TUE AUG 26 '97 07:51:54.60  PAGE  160
      ESN       ISN       TEXT

     3977    011072 CMPQ  START    PEPD
     3978    011072        WALK2
     3979    011074        ASSIGN  IND,FREE
     3980    011076        DSTATE  TYQ4,LOPROP,XABS
     3981    011100        JMPDV   XABS,3
     3982    011102        JMP     $CMPQRR
     3983    011103        JMP     $CMPQRS
     3984    011104        JMP     $CMPQSR
     3985    011105        JMP     $CMPQSS
     3986    011106
     3987    011106 $CMPQRR NULL
     3988    011106        DECCNT  LOP
     3989    011110        DECCNT  ROP
     3990    011112        GENI    (SZN 0,DL)
     3991    011114        ASSIGN  IND,USED
     3992    011116        QUIT
     3993    011117
     3994    011117 $CMPQRS NULL
     3995    011117        DECCNT  LOP
     3996    011121        GENI    DFCMP,ROP
     3997    011123        ASSIGN  IND,USED
     3998    011125        QUIT
     3999    011126
     4000    011126 $CMPQSR NULL
     4001    011126        CASE                    {Reverse relational operator}
     4002    011130        DECCNT  ROP
     4003    011132        GENI    DFCMP,LOP
     4004    011134        ASSIGN  IND,USED
     4005    011136        QUIT
     4006    011137
     4007    011137 $CMPQSS NULL
     4008    011137        ASSIGN  AR(EAQ),FREE
     4009    011141        GENI    DFLD,LOP

PSEUDO CODE ASSEMBLER FOR COBOL85   FILE=Z8HP.:Z8A6TSI       TUE AUG 26 '97 07:51:54.60  PAGE  161
      ESN       ISN       TEXT

     4010    011143        ASSIGN  AR(EAQ),USED,LOP
     4011    011145
     4012    011145        IFITIS  0,$NO_DFCMP           {Z8HI will convert 0 to float 0}
     4013    011147
     4014    011147        GENI    DFCMP,ROP
     4015    011151        ASSIGN  IND,USED
     4016    011153        QUIT
     4017    011154
     4018    011154 $NO_DFCMP  NULL
     4019    011154        DECCNT  ROP
     4020    011156        ASSIGN  IND,USED
     4021    011160        QUIT
     4022    011161        PAGE

PSEUDO CODE ASSEMBLER FOR COBOL85   FILE=Z8HP.:Z8A6TSI       TUE AUG 26 '97 07:51:54.60  PAGE  162
      ESN       ISN       TEXT

     4023    011161 CMPR  START    PEPD
     4024    011161        WALK2
     4025    011163        ASSIGN  IND,FREE
     4026    011165        DSTATE  TYR4,LOPROP,XABS
     4027    011167        JMPDV   XABS,3
     4028    011171        JMP     $CMPRRR
     4029    011172        JMP     $CMPRRS
     4030    011173        JMP     $CMPRSR
     4031    011174        JMP     $CMPRSS
     4032    011175
     4033    011175 $CMPRRR NULL
     4034    011175        DECCNT  LOP
     4035    011177        DECCNT  ROP
     4036    011201        GENI    (SZN 0,DL)
     4037    011203        ASSIGN  IND,USED
     4038    011205        QUIT
     4039    011206
     4040    011206 $CMPRRS NULL
     4041    011206        DECCNT  LOP
     4042    011210        GENI    FCMP,ROP
     4043    011212        ASSIGN  IND,USED
     4044    011214        QUIT
     4045    011215
     4046    011215 $CMPRSR NULL
     4047    011215        CASE                     {Set the REVERSE_RELATE bit}
     4048    011217        DECCNT  ROP
     4049    011221        GENI    FCMP,LOP
     4050    011223        ASSIGN  IND,USED
     4051    011225        QUIT
     4052    011226
     4053    011226 $CMPRSS NULL
     4054    011226        ASSIGN  AR(EAQ),FREE
     4055    011230        GENI    FLD,LOP

PSEUDO CODE ASSEMBLER FOR COBOL85   FILE=Z8HP.:Z8A6TSI       TUE AUG 26 '97 07:51:54.60  PAGE  163
      ESN       ISN       TEXT

     4056    011232        ASSIGN  AR(EA),USED,LOP
     4057    011234
     4058    011234        IFITIS  0,$NO_FCMP            {Z8HI will convert 0 to float 0}
     4059    011236
     4060    011236        GENI    FCMP,ROP
     4061    011240        ASSIGN  IND,USED
     4062    011242        QUIT
     4063    011243
     4064    011243 $NO_FCMP  NULL
     4065    011243        DECCNT  ROP
     4066    011245        ASSIGN  IND,USED
     4067    011247        QUIT
     4068    011250        PAGE

PSEUDO CODE ASSEMBLER FOR COBOL85   FILE=Z8HP.:Z8A6TSI       TUE AUG 26 '97 07:51:54.60  PAGE  164
      ESN       ISN       TEXT

     4069    011250 ADQ   START    PEPD
     4070    011250        WALK2
     4071    011252        DSTATE  TYQ4,LOPROP,XABS
     4072    011254        JMPDV   XABS,3
     4073    011256        JMP     $ADQRR                  {LOP=EAQ,ROP=EAQ}
     4074    011257        JMP     $ADQRS                  {LOP=EAQ,ROP=ST}
     4075    011260        JMP     $ADQSR                  {LOP=ST ,ROP=EAQ}
     4076    011261        JMP     $ADQSS                  {LOP=ST .ROP=ST}
     4077    011262
     4078    011262 $ADQRR NULL
     4079    011262        DECCNT  LOP
     4080    011264        DECCNT  ROP
     4081    011266        ASSIGN  AR(EAQ),FREE
     4082    011270        GENI    (ADE 1024,DU)
     4083    011272        ASSIGN  AR(EAQ),USED
     4084    011274        QUIT
     4085    011275
     4086    011275 $ADQRS NULL
     4087    011275        DECCNT  LOP
     4088    011277        ASSIGN  AR(EAQ),FREE
     4089    011301        GENI    DFAD,ROP
     4090    011303        ASSIGN  AR(EAQ),USED
     4091    011305        QUIT
     4092    011306
     4093    011306 $ADQSR NULL
     4094    011306        DECCNT  ROP
     4095    011310        ASSIGN  AR(EAQ),FREE
     4096    011312        GENI    DFAD,LOP
     4097    011314        ASSIGN  AR(EAQ),USED
     4098    011316        QUIT
     4099    011317
     4100    011317 $ADQSS NULL
     4101    011317        FAVOR   LOP,AR

PSEUDO CODE ASSEMBLER FOR COBOL85   FILE=Z8HP.:Z8A6TSI       TUE AUG 26 '97 07:51:54.60  PAGE  165
      ESN       ISN       TEXT

     4102    011321        ASSIGN  AR(EAQ),FREE
     4103    011323        GENI    DFLD,LOP
     4104    011325        GENI    DFAD,ROP
     4105    011327        ASSIGN  AR(EAQ),USED
     4106    011331        QUIT
     4107    011332        PAGE

PSEUDO CODE ASSEMBLER FOR COBOL85   FILE=Z8HP.:Z8A6TSI       TUE AUG 26 '97 07:51:54.60  PAGE  166
      ESN       ISN       TEXT

     4108    011332 SBQ   START    PEPD
     4109    011332        WALK2
     4110    011334        DSTATE  TYQ4,LOPROP,XABS
     4111    011336        JMPDV   XABS,3
     4112    011340        JMP     $SBQRR                  {LOP=EAQ,ROP=EAQ}
     4113    011341        JMP     $SBQRS                  {LOP=EAQ,ROP=ST}
     4114    011342        JMP     $SBQSR                  {LOP=ST ,ROP=EAQ}
     4115    011343        JMP     $SBQSS                  {LOP=ST ,ROP=ST}
     4116    011344
     4117    011344 $SBQRR NULL
     4118    011344        DECCNT  LOP
     4119    011346        DECCNT  ROP
     4120    011350        ASSIGN  AR(EAQ),FREE
     4121    011352        MOVE    OCTAL(400000000000),PCOM(GABS)
     4122    011354        GENI    (FLD 0,DU)
     4123    011356        ASSIGN  AR(EAQ),USED
     4124    011360        QUIT
     4125    011361
     4126    011361 $SBQRS NULL
     4127    011361        DECCNT  LOP
     4128    011363        ASSIGN  AR(EAQ),FREE
     4129    011365        GENI    DFSB,ROP
     4130    011367        ASSIGN  AR(EAQ),USED
     4131    011371        QUIT
     4132    011372
     4133    011372 $SBQSR NULL
     4134    011372        DECCNT  ROP
     4135    011374        ASSIGN  AR(EAQ),FREE
     4136    011376        GENI    DFSB,LOP
     4137    011400        GENI    (FNEG 0)
     4138    011402        ASSIGN  AR(EAQ),USED
     4139    011404        QUIT
     4140    011405

PSEUDO CODE ASSEMBLER FOR COBOL85   FILE=Z8HP.:Z8A6TSI       TUE AUG 26 '97 07:51:54.60  PAGE  167
      ESN       ISN       TEXT

     4141    011405 $SBQSS NULL
     4142    011405        FAVOR   LOP,AR
     4143    011407        ASSIGN  AR(EAQ),FREE
     4144    011411        GENI    DFLD,LOP
     4145    011413        GENI    DFSB,ROP
     4146    011415        ASSIGN  AR(EAQ),USED
     4147    011417        QUIT
     4148    011420        PAGE

PSEUDO CODE ASSEMBLER FOR COBOL85   FILE=Z8HP.:Z8A6TSI       TUE AUG 26 '97 07:51:54.60  PAGE  168
      ESN       ISN       TEXT

     4149    011420 MPQ   START    PEPD
     4150    011420        WALK2
     4151    011422        DSTATE  TYQ4,LOPROP,XABS
     4152    011424        JMPDV   XABS,3
     4153    011426        JMP     $MPQRR                  {LOP=EAQ,ROP=EAQ}
     4154    011427        JMP     $MPQRS                  {LOP=EAQ,ROP=ST}
     4155    011430        JMP     $MPQSR                  {LOP=ST ,ROP=EAQ}
     4156    011431        JMP     $MPQSS                  {LOP=ST ,ROP=ST}
     4157    011432
     4158    011432 $MPQRR NULL
     4159    011432        STORE   ROP
     4160    011434        DECCNT  LOP
     4161    011436        ASSIGN  AR(EAQ),FREE
     4162    011440        GENI    DFMP,ROP
     4163    011442        ASSIGN  AR(EAQ),USED
     4164    011444        QUIT
     4165    011445
     4166    011445 $MPQRS NULL
     4167    011445        DECCNT  LOP
     4168    011447        ASSIGN  AR(EAQ),FREE
     4169    011451        GENI    DFMP,ROP
     4170    011453        ASSIGN  AR(EAQ),USED
     4171    011455        QUIT
     4172    011456
     4173    011456 $MPQSR NULL
     4174    011456        DECCNT  ROP
     4175    011460        ASSIGN  AR(EAQ),FREE
     4176    011462        GENI    DFMP,LOP
     4177    011464        ASSIGN  AR(EAQ),USED
     4178    011466        QUIT
     4179    011467
     4180    011467 $MPQSS NULL
     4181    011467        FAVOR   LOP,AR

PSEUDO CODE ASSEMBLER FOR COBOL85   FILE=Z8HP.:Z8A6TSI       TUE AUG 26 '97 07:51:54.60  PAGE  169
      ESN       ISN       TEXT

     4182    011471        ASSIGN  AR(EAQ),FREE
     4183    011473        GENI    DFLD,LOP
     4184    011475        GENI    DFMP,ROP
     4185    011477        ASSIGN  AR(EAQ),USED
     4186    011501        QUIT
     4187    011502        PAGE

PSEUDO CODE ASSEMBLER FOR COBOL85   FILE=Z8HP.:Z8A6TSI       TUE AUG 26 '97 07:51:54.60  PAGE  170
      ESN       ISN       TEXT

     4188    011502 DVQ   START    PEPD
     4189    011502        WALK2
     4190    011504        DSTATE  TYQ4,LOPROP,XABS
     4191    011506        JMPDV   XABS,3
     4192    011510        JMP     $DVQRR                  {LOP=EAQ,ROP=EAQ}
     4193    011511        JMP     $DVQRS                  {LOP=EAQ,ROP=ST}
     4194    011512        JMP     $DVQSR                  {LOP=ST ,ROP=EAQ}
     4195    011513        JMP     $DVQSS                  {LOP=ST ,ROP=ST}
     4196    011514
     4197    011514 $DVQRR NULL
     4198    011514        DECCNT  LOP
     4199    011516        DECCNT  ROP
     4200    011520        ASSIGN  AR(EAQ),FREE
     4201    011522        MOVE    COMCOM(HEX),PCOM(XABS)
     4202    011524        SHIFTR  PCOM(XABS),DECIMAL(35)
     4203    011526        JMPDV   XABS,1
     4204    011530        JMP     $NHEX
     4205    011531       {JMP     $HEX}
     4206    011531 {$HEX  NULL}
     4207    011531        MOVE    OCTAL(002040000000),PCOM(GABS)
     4208    011533        JMP     $DVQR1
     4209    011534 $NHEX  NULL
     4210    011534        MOVE    OCTAL(002400000000),PCOM(GABS)
     4211    011536 $DVQR1 NULL
     4212    011536        GENI    (FLD 0,DU)
     4213    011540        ASSIGN  AR(EAQ),USED
     4214    011542        QUIT
     4215    011543
     4216    011543 $DVQRS NULL
     4217    011543        DECCNT  LOP
     4218    011545        ASSIGN  AR(EAQ),FREE
     4219    011547        GENI    DFDV,ROP
     4220    011551        ASSIGN  AR(EAQ),USED

PSEUDO CODE ASSEMBLER FOR COBOL85   FILE=Z8HP.:Z8A6TSI       TUE AUG 26 '97 07:51:54.60  PAGE  171
      ESN       ISN       TEXT

     4221    011553        QUIT
     4222    011554
     4223    011554 $DVQSR NULL
     4224    011554        DECCNT  ROP
     4225    011556        ASSIGN  AR(EAQ),FREE
     4226    011560        GENI    DFDI,LOP
     4227    011562        ASSIGN  AR(EAQ),USED
     4228    011564        QUIT
     4229    011565
     4230    011565 $DVQSS NULL
     4231    011565        FAVOR   LOP,AR
     4232    011567        ASSIGN  AR(EAQ),FREE
     4233    011571        GENI    DFLD,LOP
     4234    011573        GENI    DFDV,ROP
     4235    011575        ASSIGN  AR(EAQ),USED
     4236    011577        QUIT
     4237    011600        PAGE

PSEUDO CODE ASSEMBLER FOR COBOL85   FILE=Z8HP.:Z8A6TSI       TUE AUG 26 '97 07:51:54.60  PAGE  172
      ESN       ISN       TEXT

     4238    011600 USQ   START    PEPD
     4239    011600        WALK    LOP
     4240    011602        DSTATE  TYQ2,LOP,XABS
     4241    011604        JMPDV   XABS,1
     4242    011606        JMP     $USQR                   {LOP=EAQ}
     4243    011607        JMP     $USQS                   {LOP=ST}
     4244    011610
     4245    011610 $USQR  NULL
     4246    011610        DECCNT  LOP
     4247    011612        ASSIGN  AR(EAQ),FREE
     4248    011614        GENI    (FNEG 0)
     4249    011616        ASSIGN  AR(EAQ),USED
     4250    011620        QUIT
     4251    011621
     4252    011621 $USQS  NULL
     4253    011621        FAVOR   LOP,AR
     4254    011623        ASSIGN  AR(EAQ),FREE
     4255    011625        GENI    DFLD,LOP
     4256    011627        GENI    (FNEG 0)
     4257    011631        ASSIGN  AR(EAQ),USED
     4258    011633        QUIT
     4259    011634        PAGE

PSEUDO CODE ASSEMBLER FOR COBOL85   FILE=Z8HP.:Z8A6TSI       TUE AUG 26 '97 07:51:54.60  PAGE  173
      ESN       ISN       TEXT

     4260    011634 CMPAA START    PEPD
     4261    011634        QUIT
     4262    011635 CMGP  START    PEPD
     4263    011635       WALK     LOP
     4264    011637       WALK     ROP
     4265    011641       ASSIGN   IND,FREE
     4266    011643       ASSIGN   XR,FREE
     4267    011645       MAPT     XR,OPMOD,2
     4268    011647       GENI     EAX0,LOP
     4269    011651       GENI     CMPX0,ROP
     4270    011653       ASSIGN   IND,USED
     4271    011655       QUIT
     4272    011656
     4273    011656 CMGR  START    PEPD
     4274    011656        WALK2
     4275    011660        ASSIGN  IND,FREE
     4276    011662        DSTATE  TYR2,LOP,XABS
     4277    011664        JMPDV   XABS,1
     4278    011666        JMP     $CMGRR
     4279    011667        JMP     $CMGRS
     4280    011670
     4281    011670 $CMGRR NULL
     4282    011670        DECCNT  LOP
     4283    011672        GENI    FCMG,ROP
     4284    011674        ASSIGN  IND,USED
     4285    011676        QUIT
     4286    011677
     4287    011677 $CMGRS NULL
     4288    011677        FAVOR   LOP,AR
     4289    011701        ASSIGN  AR(EAQ),FREE
     4290    011703        GENI    FLD,LOP
     4291    011705        ASSIGN  AR(EA),USED,LOP
     4292    011707        GENI    FCMG,ROP

PSEUDO CODE ASSEMBLER FOR COBOL85   FILE=Z8HP.:Z8A6TSI       TUE AUG 26 '97 07:51:54.60  PAGE  174
      ESN       ISN       TEXT

     4293    011711        ASSIGN  IND,USED
     4294    011713        QUIT
     4295    011714        PAGE

PSEUDO CODE ASSEMBLER FOR COBOL85   FILE=Z8HP.:Z8A6TSI       TUE AUG 26 '97 07:51:54.60  PAGE  175
      ESN       ISN       TEXT

     4296    011714 CMGQ START    PEPD
     4297    011714        WALK2
     4298    011716        ASSIGN  IND,FREE
     4299    011720        DSTATE  TYQ2,LOP,XABS
     4300    011722        JMPDV   XABS,1
     4301    011724        JMP     $CMGQR
     4302    011725        JMP     $CMGQS
     4303    011726
     4304    011726 $CMGQR NULL
     4305    011726        DECCNT  LOP
     4306    011730        GENI    DFCMG,ROP
     4307    011732        ASSIGN  IND,USED
     4308    011734        QUIT
     4309    011735
     4310    011735 $CMGQS NULL
     4311    011735        FAVOR   LOP,AR
     4312    011737        ASSIGN  AR(EAQ),FREE
     4313    011741        GENI    DFLD,LOP
     4314    011743        ASSIGN  AR(EAQ),USED,LOP
     4315    011745        GENI    DFCMG,ROP
     4316    011747        ASSIGN  IND,USED
     4317    011751        QUIT
     4318    011752        PAGE

PSEUDO CODE ASSEMBLER FOR COBOL85   FILE=Z8HP.:Z8A6TSI       TUE AUG 26 '97 07:51:54.60  PAGE  176
      ESN       ISN       TEXT

     4319    011752 {CMG   START}
     4320    011752        WALK2
     4321    011754        ASSIGN  IND,FREE
     4322    011756        DSTATE  TYI4,LOP,XABS
     4323    011760        JMPDV   XABS,3
     4324    011762        JMP     $CMGA
     4325    011763        JMP     $CMGQ_
     4326    011764        JMP     $CMGX
     4327    011765        JMP     $CMGS
     4328    011766
     4329    011766 $CMGA  NULL
     4330    011766        DECCNT  LOP
     4331    011770        GENI    CMG,ROP
     4332    011772        ASSIGN  IND,USED
     4333    011774        QUIT
     4334    011775
     4335    011775 $CMGQ_  NULL
     4336    011775        DECCNT  LOP
     4337    011777        ASSIGN  AR(AQ),FREE
     4338    012001        GENI    (LLS 36)
     4339    012003        GENI    CMG,ROP
     4340    012005        ASSIGN  IND,USED
     4341    012007        QUIT
     4342    012010
     4343    012010 $CMGX  NULL
     4344    012010        GOSUB   L_TO_A
     4345    012011        JMP     $CMGA
     4346    012012
     4347    012012 $CMGS  NULL
     4348    012012        FAVOR   LOP,ARA
     4349    012014        ASSIGN  AR(A),FREE
     4350    012016        GENI    LDA,LOP
     4351    012020        ASSIGN  AR(A),USED,LOP

PSEUDO CODE ASSEMBLER FOR COBOL85   FILE=Z8HP.:Z8A6TSI       TUE AUG 26 '97 07:51:54.60  PAGE  177
      ESN       ISN       TEXT

     4352    012022        GENI    CMG,ROP
     4353    012024        ASSIGN  IND,USED
     4354    012026        QUIT
     4355    012027        PAGE

PSEUDO CODE ASSEMBLER FOR COBOL85   FILE=Z8HP.:Z8A6TSI       TUE AUG 26 '97 07:51:54.60  PAGE  178
      ESN       ISN       TEXT

     4356    012027 CV49  START    PEPD
     4357    012027        WALK    LOP
     4358    012031        ALLOTD  VOPND
     4359    012033        DEFER
     4360    012035        GENI    (MVN (0,0,0,N),(0,0,0,N))
     4361    012037        GENI    NDSC4,LOP
     4362    012041        GENI    NDSC9,VOPND
     4363    012043        WRAPUP
     4364    012045
     4365    012045        ATTACH  VOPND
     4366    012047        QUIT
     4367    012050        PAGE

PSEUDO CODE ASSEMBLER FOR COBOL85   FILE=Z8HP.:Z8A6TSI       TUE AUG 26 '97 07:51:54.60  PAGE  179
      ESN       ISN       TEXT

     4368    012050 AD2I  START    PEPD
     4369    012050        WALK2
     4370    012052        IFITIS  1,,$AD2I00               {IF ONE, OPTIMIZE!}
     4371    012054        DECCNT  ROP                     {IMPLIED REFERENCE TO ROP}
     4372    012056        ASSIGN  AR(LOP),FREE            {IF LOP REG CONTAINED... NO LONGER}
     4373    012060        GENI    AOS,LOP
     4374    012062        QUIT
     4375    012063
     4376    012063 $AD2I00 NULL
     4377    012063        DSTATE  TYI4,ROP,XABS           {DETERMINE STATE}
     4378    012065        JMPDV   XABS,3
     4379    012067        JMP     $AD2IA                   {ROP=ARA}
     4380    012070        JMP     $AD2IQ                   {ROP=ARQ}
     4381    012071        JMP     $AD2IX                   {ROP=ARX}
     4382    012072        JMP     $AD2IS                   {ROP=ST}
     4383    012073
     4384    012073 $AD2IA NULL
     4385    012073        DECCNT  ROP                     {IMPLIED REFERENCE TO ROP}
     4386    012075        WALK    LOP                     {IN CASE LOP = ROP}
     4387    012077        GENI    ASA,LOP                 {ADD ROP TO STORAGE(LOP)}
     4388    012101        QUIT
     4389    012102
     4390    012102 $AD2IQ NULL
     4391    012102        DECCNT  ROP
     4392    012104        WALK    LOP                     {IN CASE LOP = ROP}
     4393    012106        GENI    ASQ,LOP                 {SAME AS FOR ARA}
     4394    012110        QUIT
     4395    012111
     4396    012111 $AD2IX NULL
     4397    012111        GOSUB   R_TOAR                  {SEND ROP TO AN ARITHMETIC REG}
     4398    012112        JMP     $AD2I00                  {STATE UNKNOWN}
     4399    012113
     4400    012113 $AD2IS NULL

PSEUDO CODE ASSEMBLER FOR COBOL85   FILE=Z8HP.:Z8A6TSI       TUE AUG 26 '97 07:51:54.60  PAGE  180
      ESN       ISN       TEXT

     4401    012113        FAVOR   ROP,AR
     4402    012115        ASSIGN  AR,FREE                 {GET AN ARITHMETIC REGISTER}
     4403    012117        MAPT    AR,OPMOD,2              {MAP FREE ONTO THE OPCODE}
     4404    012121        ASSIGN  AR,USED,ROP             {THE FREED REG HOLDS THE ROP'S EXP}
     4405    012123        GENI    LDA,ROP                 {LOAD THE GUY}
     4406    012125        WALK    LOP                     {IN CASE LOP = ROP}
     4407    012127        GENI    ASA,LOP                 {ADD TO STORAGE}
     4408    012131        QUIT
     4409    012132        PAGE

PSEUDO CODE ASSEMBLER FOR COBOL85   FILE=Z8HP.:Z8A6TSI       TUE AUG 26 '97 07:51:54.60  PAGE  181
      ESN       ISN       TEXT

     4410    012132 OR2I  START    PEPD
     4411    012132        WALK2
     4412    012134
     4413    012134 $OR2I00 NULL
     4414    012134        DSTATE  TYI4,ROP,XABS           {DETERMINE STATE}
     4415    012136        JMPDV   XABS,3
     4416    012140        JMP     $OR2IA                   {ROP=ARA}
     4417    012141        JMP     $OR2IQ                   {ROP=ARQ}
     4418    012142        JMP     $OR2IX                   {ROP=ARX}
     4419    012143        JMP     $OR2IS                   {ROP=ST}
     4420    012144
     4421    012144 $OR2IA NULL
     4422    012144        DECCNT  ROP                     {IMPLIED REFERENCE TO ROP}
     4423    012146        GENI    ORSA,LOP                {OR ROP TO STORAGE(LOP)}
     4424    012150        QUIT
     4425    012151
     4426    012151 $OR2IQ NULL
     4427    012151        DECCNT  ROP
     4428    012153        GENI    ORSQ,LOP                {SAME AS FOR ARA}
     4429    012155        QUIT
     4430    012156
     4431    012156 $OR2IX NULL
     4432    012156        GOSUB   R_TOAR                  {SEND ROP TO AN ARITHMETIC REG}
     4433    012157        JMP     $OR2I00                  {STATE UNKNOWN}
     4434    012160
     4435    012160 $OR2IS NULL
     4436    012160        FAVOR   ROP,AR
     4437    012162        ASSIGN  AR,FREE                 {GET AN ARITHMETIC REGISTER}
     4438    012164        MAPT    AR,OPMOD,2              {MAP FREE ONTO THE OPCODE}
     4439    012166        GENI    LDA,ROP                 {LOAD THE GUY}
     4440    012170        ASSIGN  AR,USED,ROP             {THE FREED REG HOLDS THE ROP'S EXP}
     4441    012172        GENI    ORSA,LOP                {OR TO STORAGE}
     4442    012174        QUIT

PSEUDO CODE ASSEMBLER FOR COBOL85   FILE=Z8HP.:Z8A6TSI       TUE AUG 26 '97 07:51:54.60  PAGE  182
      ESN       ISN       TEXT

     4443    012175        PAGE

PSEUDO CODE ASSEMBLER FOR COBOL85   FILE=Z8HP.:Z8A6TSI       TUE AUG 26 '97 07:51:54.60  PAGE  183
      ESN       ISN       TEXT

     4444    012175 SB2I  START    PEPD
     4445    012175        WALK2
     4446    012177
     4447    012177 $SB2I00 NULL
     4448    012177        DSTATE  TYI4,ROP,XABS
     4449    012201        JMPDV   XABS,3
     4450    012203        JMP     $SB2IA                   {ROP=ARA}
     4451    012204        JMP     $SB2IQ                   {ROP=ARQ}
     4452    012205        JMP     $SB2IX                   {ROP=XR}
     4453    012206        JMP     $SB2IS                   {ROP=ST}
     4454    012207
     4455    012207 $SB2IA NULL
     4456    012207        DECCNT  ROP
     4457    012211        ASSIGN  AR(A),FREE              {FREE THE ARA}
     4458    012213        GENI    (NEG 0)                 {NEGATE WHAT'S IN THE ARA}
     4459    012215        GENI    ASA,LOP
     4460    012217        QUIT
     4461    012220
     4462    012220 $SB2IQ NULL
     4463    012220        DECCNT  ROP
     4464    012222        ASSIGN  AR(AQ),FREE             {ASSURE BOTH REGS ARE FREE}
     4465    012224        GENI    (LLS 36)                {MOVE ARQ TO ARA}
     4466    012226        GENI    (NEG 0)
     4467    012230        GENI    ASA,LOP
     4468    012232        QUIT
     4469    012233
     4470    012233 $SB2IX NULL
     4471    012233        GOSUB   R_TOAR                  {MOVE ROP'S XR INTO AN ARITH.}
     4472    012234        JMP     $SB2I00                  {UNKNOWN STATE}
     4473    012235
     4474    012235 $SB2IS NULL
     4475    012235        FAVOR   ROP,AR
     4476    012237        ASSIGN  AR,FREE                 {GET AN ARITHMETIC REGISTER}

PSEUDO CODE ASSEMBLER FOR COBOL85   FILE=Z8HP.:Z8A6TSI       TUE AUG 26 '97 07:51:54.60  PAGE  184
      ESN       ISN       TEXT

     4477    012241        MAPT    AR,OPMOD,2              {MAP CHOSEN ONTO NEXT INSTRUCTION}
     4478    012243        GENI    LCA,ROP                 {LOAD COMPLEMENT}
     4479    012245        GENI    ASA,LOP
     4480    012247        QUIT
     4481    012250        PAGE

PSEUDO CODE ASSEMBLER FOR COBOL85   FILE=Z8HP.:Z8A6TSI       TUE AUG 26 '97 07:51:54.60  PAGE  185
      ESN       ISN       TEXT

     4482    012250 MP2I  START    PEPD
     4483    012250 DV2I  START    PEPD
     4484    012250 DV2IR START    PEPD
     4485    012250        PAGE

PSEUDO CODE ASSEMBLER FOR COBOL85   FILE=Z8HP.:Z8A6TSI       TUE AUG 26 '97 07:51:54.60  PAGE  186
      ESN       ISN       TEXT

     4486    012250 MVDI  START    PEPD
     4487    012250        WALK2
     4488    012252        ASSIGN  IND,FREE
     4489    012254        DEFER
     4490    012256        GENI    (DTB ())
     4491    012260        GENI    NDSC9,ROP
     4492    012262        GENI    ADSC9,LOP
     4493    012264        WRAPUP
     4494    012266        QUIT
     4495    012267        PAGE

PSEUDO CODE ASSEMBLER FOR COBOL85   FILE=Z8HP.:Z8A6TSI       TUE AUG 26 '97 07:51:54.60  PAGE  187
      ESN       ISN       TEXT

     4496    012267 MVID  START    PEPD
     4497    012267        WALK2
     4498    012271        ASSIGN  IND,FREE
     4499    012273        CASE
     4500    012275        DSTATE  TYI4,ROP,XABS
     4501    012277        JMPDV   XABS,3
     4502    012301        JMP     $MVIDA
     4503    012302        JMP     $MVIDQ
     4504    012303        JMP     $MVIDX
     4505    012304        JMP     $MVIDS
     4506    012305
     4507    012305 $MVIDA NULL
     4508    012305 $MVIDQ NULL
     4509    012305 $MVIDX NULL
     4510    012305        STORE   ROP
     4511    012307
     4512    012307 $MVIDS NULL
     4513    012307        DEFER
     4514    012311        GENI    (BTD ())
     4515    012313        GENI    NDSC9,ROP
     4516    012315        GENI    ADSC9,LOP
     4517    012317        WRAPUP
     4518    012321        QUIT
     4519    012322        PAGE

PSEUDO CODE ASSEMBLER FOR COBOL85   FILE=Z8HP.:Z8A6TSI       TUE AUG 26 '97 07:51:54.60  PAGE  188
      ESN       ISN       TEXT

     4520    012322 MVRL  START    PEPD
     4521    012322        WALK2
     4522    012324
     4523    012324        CASE
     4524    012326        MOVE    COMCOM(FILL),PCOM(GABS)
     4525    012330        DEFER
     4526    012332        GENI    (MRL ,,000,0)
     4527    012334        GENI    ADSC9,ROP
     4528    012336        GENI    ADSC9,LOP
     4529    012340        WRAPUP
     4530    012342        QUIT
     4531    012343        PAGE

PSEUDO CODE ASSEMBLER FOR COBOL85   FILE=Z8HP.:Z8A6TSI       TUE AUG 26 '97 07:51:54.60  PAGE  189
      ESN       ISN       TEXT

     4532    012343 MVANO START    PEPD
     4533    012343        WALK2
     4534    012345        ASSIGN  IND,FREE
     4535    012347        CASE    CABS,TABS,OABS
     4536    012351        JMPDV   CABS,36
     4537    012353        JMP     $OP00_S
     4538    012354        JMP     $OP00
     4539    012355        JMP     $OP01_S
     4540    012356        JMP     $OP01
     4541    012357        JMP     $OP02_S
     4542    012360        JMP     $OP02
     4543    012361        JMP     $OP03_S
     4544    012362        JMP     $OP03
     4545    012363        JMP     $OP04_S
     4546    012364        JMP     $OP04
     4547    012365        JMP     $OP05_S
     4548    012366        JMP     $OP05
     4549    012367        JMP     $OP06_S
     4550    012370        JMP     $OP06
     4551    012371        JMP     $OP07_S
     4552    012372        JMP     $OP07
     4553    012373        JMP     $OP08_S
     4554    012374        JMP     $OP08
     4555    012375        JMP     $OP09_S
     4556    012376        JMP     $OP09
     4557    012377        JMP     $OP10_S
     4558    012400        JMP     $OP10
     4559    012401        JMP     $OP11_S
     4560    012402        JMP     $OP11
     4561    012403        JMP     $OP12_S
     4562    012404        JMP     $OP12
     4563    012405        JMP     $OP13_S
     4564    012406        JMP     $OP13

PSEUDO CODE ASSEMBLER FOR COBOL85   FILE=Z8HP.:Z8A6TSI       TUE AUG 26 '97 07:51:54.60  PAGE  190
      ESN       ISN       TEXT

     4565    012407        JMP     $OP14_S
     4566    012410        JMP     $OP14
     4567    012411        JMP     $OP15_S
     4568    012412        JMP     $OP15
     4569    012413        JMP     $OP16_S
     4570    012414        JMP     $OP16
     4571    012415        JMP     $OP17_S
     4572    012416        JMP     $OP17
     4573    012417        JMP     $OPEQ
     4574    012420
     4575    012420
     4576    012420 $OP00_S NULL
     4577    012420        ASSIGN  XR,FREE
     4578    012422        MAPT    XR,OPMOD,2
     4579    012424        GENI    LDX0,ROP
     4580    012426        ASSIGN  XR,USED,ROP
     4581    012430        GENI    STX0,LOP
     4582    012432        ASSIGN  XR,USED
     4583    012434        QUIT
     4584    012435
     4585    012435 $OP00   NULL
     4586    012435        MAPT    XR(ROP),OPMOD
     4587    012437        GENI    STX0,LOP
     4588    012441        ASSIGN  XR(ROP),USED
     4589    012443        DECCNT  ROP
     4590    012445        QUIT
     4591    012446
     4592    012446 $OP01_S NULL
     4593    012446        ASSIGN  XR,FREE
     4594    012450        MAPT    XR,OPMOD,2
     4595    012452        GENI    LDX0,ROP
     4596    012454        ASSIGN  XR,USED,ROP
     4597    012456        GENI    SXL0,LOP
     4598    012460        ASSIGN  XR,USED

PSEUDO CODE ASSEMBLER FOR COBOL85   FILE=Z8HP.:Z8A6TSI       TUE AUG 26 '97 07:51:54.60  PAGE  191
      ESN       ISN       TEXT

     4599    012462        QUIT
     4600    012463
     4601    012463 $OP01   NULL
     4602    012463        MAPT    XR(ROP),OPMOD
     4603    012465        GENI    SXL0,LOP
     4604    012467        ASSIGN  XR(ROP),USED
     4605    012471        DECCNT  ROP
     4606    012473        QUIT
     4607    012474
     4608    012474 $OP02_S NULL
     4609    012474        ASSIGN  XR,FREE
     4610    012476        MAPT    XR,OPMOD,2
     4611    012500        GENI    LXL0,ROP
     4612    012502        ASSIGN  XR,USED,ROP
     4613    012504        GENI    STX0,LOP
     4614    012506        ASSIGN  XR,USED
     4615    012510        QUIT
     4616    012511
     4617    012511 $OP02   NULL
     4618    012511        MAPT    XR(ROP),OPMOD
     4619    012513        GENI    STX0,LOP
     4620    012515        ASSIGN  XR(ROP),USED
     4621    012517        DECCNT  ROP
     4622    012521        QUIT
     4623    012522
     4624    012522 $OP03_S NULL
     4625    012522        ASSIGN  XR,FREE
     4626    012524        MAPT    XR,OPMOD,2
     4627    012526        GENI    LXL0,ROP
     4628    012530        ASSIGN  XR,USED,ROP
     4629    012532        GENI    SXL0,LOP
     4630    012534        ASSIGN  XR,USED
     4631    012536        QUIT
     4632    012537

PSEUDO CODE ASSEMBLER FOR COBOL85   FILE=Z8HP.:Z8A6TSI       TUE AUG 26 '97 07:51:54.60  PAGE  192
      ESN       ISN       TEXT

     4633    012537 $OP03   NULL
     4634    012537        MAPT    XR(ROP),OPMOD
     4635    012541        GENI    SXL0,LOP
     4636    012543        ASSIGN  XR(ROP),USED
     4637    012545        DECCNT  ROP
     4638    012547        QUIT
     4639    012550
     4640    012550 $OP04_S NULL
     4641    012550        ASSIGN  AR,FREE
     4642    012552        MAPT    AR,OPMOD,2
     4643    012554        GENI    LDA,ROP
     4644    012556        GENI    STA,LOP
     4645    012560        ASSIGN  AR,USED
     4646    012562        QUIT
     4647    012563
     4648    012563 $OP04   NULL
     4649    012563        MAPT    AR(ROP),OPMOD
     4650    012565        GENI    STA,LOP
     4651    012567        ASSIGN  AR(ROP),USED
     4652    012571        DECCNT  ROP
     4653    012573        QUIT
     4654    012574
     4655    012574 $OP05_S NULL
     4656    012574        ASSIGN  AR(AQ),FREE
     4657    012576        GENI    LDAQ,ROP
     4658    012600        JMP     $OP05_
     4659    012601
     4660    012601 $OP05   NULL
     4661    012601        DECCNT  ROP
     4662    012603 $OP05_  NULL
     4663    012603        GENI    STAQ,LOP
     4664    012605        ASSIGN  AR(AQ),USED
     4665    012607        QUIT
     4666    012610

PSEUDO CODE ASSEMBLER FOR COBOL85   FILE=Z8HP.:Z8A6TSI       TUE AUG 26 '97 07:51:54.60  PAGE  193
      ESN       ISN       TEXT

     4667    012610 $OP06_S NULL
     4668    012610        ASSIGN  AR(AQ),FREE
     4669    012612        GENI    LDAQ,ROP
     4670    012614        JMP     $OP06_
     4671    012615
     4672    012615 $OP06   NULL
     4673    012615        DECCNT  ROP
     4674    012617 $OP06_  NULL
     4675    012617        OFFSET  LOP,OABS,POPND
     4676    012621        GENI    STA,LOP
     4677    012623        GENI    STQ,POPND
     4678    012625        ASSIGN  AR(AQ),USED
     4679    012627        QUIT
     4680    012630
     4681    012630 $OP07_S NULL
     4682    012630        ASSIGN  AR(AQ),FREE
     4683    012632        OFFSET  ROP,OABS,POPND
     4684    012634        GENI    LDA,ROP
     4685    012636        GENI    LDQ,POPND
     4686    012640        JMP     $OP07_
     4687    012641
     4688    012641 $OP07   NULL
     4689    012641        DECCNT  ROP
     4690    012643 $OP07_  NULL
     4691    012643        GENI    STAQ,LOP
     4692    012645        ASSIGN  AR(AQ),USED
     4693    012647        QUIT
     4694    012650
     4695    012650 $OP08_S NULL
     4696    012650        ASSIGN  AR,FREE
     4697    012652        OFFSET  ROP,OABS,ROPND
     4698    012654        OFFSET  LOP,OABS,LOPND
     4699    012656        MAPT    AR,OPMOD,4
     4700    012660        GENI    LDA,ROP

PSEUDO CODE ASSEMBLER FOR COBOL85   FILE=Z8HP.:Z8A6TSI       TUE AUG 26 '97 07:51:54.60  PAGE  194
      ESN       ISN       TEXT

     4701    012662        GENI    STA,LOP
     4702    012664        GENI    LDA,ROPND
     4703    012666        GENI    STA,LOPND
     4704    012670        QUIT
     4705    012671
     4706    012671 $OP08   EQUATE     $OP06
     4707    012671
     4708    012671 $OP09_S NULL
     4709    012671 $OP10_S NULL
     4710    012671 $OP11_S NULL
     4711    012671 $OP12_S NULL
     4712    012671 $OP13_S NULL
     4713    012671 $OP14_S NULL
     4714    012671 $OP15_S NULL
     4715    012671 $OP16_S NULL
     4716    012671 $OP17_S NULL
     4717    012671        ASSIGN  AR,FREE
     4718    012673        MAPT    AR,OPMOD,2
     4719    012675        GENI    LDA,ROP
     4720    012677        MOVE    PCOM(TABS),PCOM(GABS)
     4721    012701        GENI    (STBA 0,0),LOP
     4722    012703        ASSIGN  AR,USED
     4723    012705        QUIT
     4724    012706
     4725    012706 $OP09   NULL
     4726    012706 $OP10   NULL
     4727    012706 $OP11   NULL
     4728    012706 $OP12   NULL
     4729    012706 $OP13   NULL
     4730    012706 $OP14   NULL
     4731    012706 $OP15   NULL
     4732    012706 $OP16   NULL
     4733    012706 $OP17   NULL
     4734    012706        MAPT    AR(ROP),OPMOD

PSEUDO CODE ASSEMBLER FOR COBOL85   FILE=Z8HP.:Z8A6TSI       TUE AUG 26 '97 07:51:54.60  PAGE  195
      ESN       ISN       TEXT

     4735    012710        MOVE    PCOM(TABS),PCOM(GABS)
     4736    012712        GENI    (STBA 0,0),LOP
     4737    012714        ASSIGN  AR(ROP),USED
     4738    012716        DECCNT  ROP
     4739    012720        QUIT
     4740    012721
     4741    012721 $OPEQ   NULL
     4742    012721        DECCNT  LOP
     4743    012723        DECCNT  ROP
     4744    012725        QUIT
     4745    012726        PAGE

PSEUDO CODE ASSEMBLER FOR COBOL85   FILE=Z8HP.:Z8A6TSI       TUE AUG 26 '97 07:51:54.60  PAGE  196
      ESN       ISN       TEXT

     4746    012726 INITV START    PEPD
     4747    012726        WALK    LOP
     4748    012730
     4749    012730        DSTATE  TYI4,LOP,XABS
     4750    012732        JMPDV   XABS,3
     4751    012734        JMP     $INITVA
     4752    012735        JMP     $INITVQ
     4753    012736        JMP     $INITVX
     4754    012737        JMP     $INITVS
     4755    012740
     4756    012740 $INITVA NULL
     4757    012740 $INITVQ NULL
     4758    012740        ASSIGN  XR,FREE
     4759    012742        MAPT    XR,OPMOD
     4760    012744        MAPT    AR(LOP),TAGMOD
     4761    012746        GENI    (EAX0 0)
     4762    012750
     4763    012750        DECCNT  LOP
     4764    012752        ASSIGN  XR,USED,ROP
     4765    012754        ASSIGN  XR,GLOBAL
     4766    012756        JMP     $INITVE                  {INITV end}
     4767    012757
     4768    012757 $INITVX NULL
     4769    012757        ASSIGN  XR(LOP),USED,ROP
     4770    012761        ASSIGN  XR(ROP),GLOBAL
     4771    012763        DECCNT  LOP
     4772    012765        JMP     $INITVE                  {INITV end}
     4773    012766
     4774    012766 $INITVS NULL
     4775    012766        ASSIGN  XR,FREE
     4776    012770        MAPT    XR,OPMOD
     4777    012772        GENI    LXL0,LOP
     4778    012774

PSEUDO CODE ASSEMBLER FOR COBOL85   FILE=Z8HP.:Z8A6TSI       TUE AUG 26 '97 07:51:54.60  PAGE  197
      ESN       ISN       TEXT

     4779    012774        ASSIGN  XR,USED,ROP
     4780    012776        ASSIGN  XR,GLOBAL
     4781    013000
     4782    013000
     4783    013000 $INITVE NULL
     4784    013000        CASE                            {Make count valid and untouchable,}
     4785    013002                                        {init ADDO too.}
     4786    013002
     4787    013002        QUIT
     4788    013003        PAGE

PSEUDO CODE ASSEMBLER FOR COBOL85   FILE=Z8HP.:Z8A6TSI       TUE AUG 26 '97 07:51:54.60  PAGE  198
      ESN       ISN       TEXT

     4789    013003 INCRV START    PEPD
     4790    013003        WALK    LOP
     4791    013005
     4792    013005        MAPT    XR(ROP),OPMOD
     4793    013007        GENI    ADLX0,LOP
     4794    013011
     4795    013011        ASSIGN  XR(ROP),DEMAND
     4796    013013        ASSIGN  XR(ROP),FREE
     4797    013015
     4798    013015        CASE                            {Zero count}
     4799    013017
     4800    013017        QUIT
     4801    013020        PAGE

PSEUDO CODE ASSEMBLER FOR COBOL85   FILE=Z8HP.:Z8A6TSI       TUE AUG 26 '97 07:51:54.60  PAGE  199
      ESN       ISN       TEXT

     4802    013020 DO1   START    PEPD
     4803    013020 DO3   START    PEPD
     4804    013020 DO4   START    PEPD
     4805    013020 DO5   START    PEPD
     4806    013020       ASSIGN   ALLREGS,FREE
     4807    013022       CASE                      {Increment current loop level}
     4808    013024       QUIT
     4809    013025       PAGE

PSEUDO CODE ASSEMBLER FOR COBOL85   FILE=Z8HP.:Z8A6TSI       TUE AUG 26 '97 07:51:54.60  PAGE  200
      ESN       ISN       TEXT

     4810    013025 DO2   START    PEPD
     4811    013025        ALLOT   NEXT,TYI,XOPND,4,9,FRESH
     4812    013027
     4813    013027        MOVE    ILL(TIMES),PCOM(TOPND)
     4814    013031        WALK    TOPND
     4815    013033
     4816    013033        DSTATE  TYI4,TOPND,XABS
     4817    013035        JMPDV   XABS,3
     4818    013037        JMP     $DO2A
     4819    013040        JMP     $DO2Q
     4820    013041        JMP     $DO2X
     4821    013042        JMP     $DO2S
     4822    013043
     4823    013043 $DO2A  NULL
     4824    013043        ASSIGN  AR(A),FREE
     4825    013045        GENI    NEG
     4826    013047        GENI    STA,XOPND
     4827    013051        DECCNT  TOPND              {Implied reference to TOPND}
     4828    013053        JMP     $DO2FIN
     4829    013054
     4830    013054 $DO2Q  NULL
     4831    013054        ASSIGN  AR(AQ),FREE
     4832    013056        GENI    (LLS 36)
     4833    013060        GENI    NEG
     4834    013062        GENI    STA,XOPND
     4835    013064        DECCNT  TOPND              {Implied reference to TOPND}
     4836    013066        JMP     $DO2FIN
     4837    013067
     4838    013067 $DO2X   NULL
     4839    013067         {This state should never occur}
     4840    013067
     4841    013067 $DO2S  FAVOR   TOPND,AR
     4842    013071        ASSIGN  AR,FREE

PSEUDO CODE ASSEMBLER FOR COBOL85   FILE=Z8HP.:Z8A6TSI       TUE AUG 26 '97 07:51:54.60  PAGE  201
      ESN       ISN       TEXT

     4843    013073        MAPT    AR,OPMOD,2
     4844    013075        GENI    LCA,TOPND               {HOW MANY TIMES}
     4845    013077        GENI    STA,XOPND               {STORE INTO TEMP}
     4846    013101
     4847    013101 $DO2FIN NEWLAB  EOPND                   {GET LABEL TO BE DEFINED IN DOEND}
     4848    013103        GENI    TPL,EOPND
     4849    013105
     4850    013105        NEWLAB  QOPND                   {GET LABEL GUY}
     4851    013107        DEFLAB  QOPND                   {DEFINE IT HERE}
     4852    013111
     4853    013111
     4854    013111        CASE                            {REMEMBER INFO IN DO2 ITEM}
     4855    013113
     4856    013113        QUIT
     4857    013114        PAGE

PSEUDO CODE ASSEMBLER FOR COBOL85   FILE=Z8HP.:Z8A6TSI       TUE AUG 26 '97 07:51:54.60  PAGE  202
      ESN       ISN       TEXT

     4858    013114 DOEND START    PEPD
     4859    013114        CASE    IABS,XOPND,QOPND
     4860    013116
     4861    013116        JMPDV   IABS,4                  {Jump on DOn ID.}
     4862    013120        JMP     $DO1
     4863    013121        JMP     $DO2
     4864    013122        JMP     $DO3
     4865    013123        JMP     $DO4
     4866    013124        JMP     $DO5
     4867    013125
     4868    013125 $DO1    NULL
     4869    013125        QUIT
     4870    013126
     4871    013126 $DO2    NULL
     4872    013126        GENI    AOS,XOPND
     4873    013130        GENI    TMI,QOPND
     4874    013132        DEFLAB  EOPND                   {DESTINATION OF TERMINATION OF LOOP}
     4875    013134        QUIT
     4876    013135
     4877    013135 $DO3    NULL
     4878    013135        QUIT
     4879    013136
     4880    013136 $DO4    NULL
     4881    013136        QUIT
     4882    013137
     4883    013137 $DO5    NULL
     4884    013137        QUIT
     4885    013140        PAGE

PSEUDO CODE ASSEMBLER FOR COBOL85   FILE=Z8HP.:Z8A6TSI       TUE AUG 26 '97 07:51:54.60  PAGE  203
      ESN       ISN       TEXT

     4886    013140 PFORM START    PEPD     {PFORM should not appear in phase 4}
     4887    013140        QUIT
     4888    013141 GO_SUB  START   PEPD
     4889    013141        ASSIGN  ALLREGS,FREE
     4890    013143        MOVE    ILL(BRANCH$),PCOM(ZOPND)
     4891    013145        GENI    TSX7,ZOPND
     4892    013147        QUIT
     4893    013150       PAGE

PSEUDO CODE ASSEMBLER FOR COBOL85   FILE=Z8HP.:Z8A6TSI       TUE AUG 26 '97 07:51:54.60  PAGE  204
      ESN       ISN       TEXT

     4894    013150 SUB_PREP START PEPD
     4895    013150
     4896    013150 {SUB_PREP is required at the beginning of an optimized
     4897    013150 PERFORM, before the DEFLB, when the performed paragraph
     4898    013150 can be fallen into.  }
     4899    013150
     4900    013150        GENI    EAX7,LOP
     4901    013152        QUIT
     4902    013153        PAGE

PSEUDO CODE ASSEMBLER FOR COBOL85   FILE=Z8HP.:Z8A6TSI       TUE AUG 26 '97 07:51:54.60  PAGE  205
      ESN       ISN       TEXT

     4903    013153 SUB_ENTRY START PEPD
     4904    013153
     4905    013153        WALK   ROP
     4906    013155
     4907    013155        CASE   DABS
     4908    013157        JMPDV  DABS,1
     4909    013161        JMP    $NON_NESTED
     4910    013162       {JMP    $NESTED}
     4911    013162
     4912    013162 $NESTED NULL
     4913    013162        GENI  STX7,ROP
     4914    013164        QUIT
     4915    013165
     4916    013165 $NON_NESTED NULL
     4917    013165        ASSIGN XR(7),DEDIC
     4918    013167        QUIT
     4919    013170        PAGE

PSEUDO CODE ASSEMBLER FOR COBOL85   FILE=Z8HP.:Z8A6TSI       TUE AUG 26 '97 07:51:54.60  PAGE  206
      ESN       ISN       TEXT

     4920    013170 SUB_END START PEPD
     4921    013170
     4922    013170        WALK   ROP
     4923    013172
     4924    013172        CASE   DABS
     4925    013174        JMPDV  DABS,1
     4926    013176        JMP    $NOT_NESTED
     4927    013177       {JMP    $NESTED}
     4928    013177
     4929    013177 $NESTED NULL
     4930    013177        GENI  LDX7,ROP
     4931    013201        GENI   (TRA 0,7)
     4932    013203        QUIT
     4933    013204
     4934    013204 $NOT_NESTED NULL
     4935    013204        GENI (TRA 0,7)
     4936    013206        ASSIGN XR(7),DEMAND
     4937    013210        DECCNT  ROP,2     {There was never a reference to the ROP}
     4938    013212        QUIT
     4939    013213        PAGE

PSEUDO CODE ASSEMBLER FOR COBOL85   FILE=Z8HP.:Z8A6TSI       TUE AUG 26 '97 07:51:54.60  PAGE  207
      ESN       ISN       TEXT

     4940    013213 MFILL START    PEPD
     4941    013213        WALK    LOP
     4942    013215        CASE
     4943    013217
     4944    013217        MOVE    ILL(CODE),PCOM(GABS)
     4945    013221        SHIFTL  PCOM(GABS),DECIMAL(18)
     4946    013223
     4947    013223        DEFER
     4948    013225        GENI    (MLR (0,0,0,N),(0,0,0,N))
     4949    013227        GENI    (ZERO 0,0)
     4950    013231        GENI    ADSC9,LOP
     4951    013233        WRAPUP
     4952    013235        QUIT
     4953    013236        PAGE

PSEUDO CODE ASSEMBLER FOR COBOL85   FILE=Z8HP.:Z8A6TSI       TUE AUG 26 '97 07:51:54.60  PAGE  208
      ESN       ISN       TEXT

     4954    013236 CFILL START    PEPD
     4955    013236        WALK    LOP
     4956    013240
     4957    013240        ASSIGN  IND,FREE
     4958    013242
     4959    013242        MOVE    ILL(ROP),PCOM(GABS)
     4960    013244
     4961    013244        DEFER
     4962    013246        GENI    (CMPC ,,000)
     4963    013250        GENI    ADSC9,LOP
     4964    013252        GENI    (ZERO 0,0)
     4965    013254        WRAPUP
     4966    013256
     4967    013256        ASSIGN  IND,USED
     4968    013260        QUIT
     4969    013261        PAGE

PSEUDO CODE ASSEMBLER FOR COBOL85   FILE=Z8HP.:Z8A6TSI       TUE AUG 26 '97 07:51:54.60  PAGE  209
      ESN       ISN       TEXT

     4970    013261 CFILLR START    PEPD
     4971    013261 {Compare to fill character with the EIS arguments reverse of CFILL}
     4972    013261
     4973    013261        WALK    LOP
     4974    013263
     4975    013263        ASSIGN  IND,FREE
     4976    013265
     4977    013265        MOVE    ILL(ROP),PCOM(GABS)
     4978    013267
     4979    013267        DEFER
     4980    013271        GENI    (CMPC ,,000)
     4981    013273        GENI    (ZERO 0,0)
     4982    013275        GENI    ADSC9,LOP
     4983    013277        WRAPUP
     4984    013301
     4985    013301        ASSIGN  IND,USED
     4986    013303        QUIT
     4987    013304        PAGE

PSEUDO CODE ASSEMBLER FOR COBOL85   FILE=Z8HP.:Z8A6TSI       TUE AUG 26 '97 07:51:54.60  PAGE  210
      ESN       ISN       TEXT

     4988    013304  CHKLEN NULL
     4989    013304        ASSIGN  IND,FREE
     4990    013306         JMPDV   LABS,1
     4991    013310         RTN                    {LENGTH OF ROP IS CONSTANT}
     4992    013311         JMPDV   XABS,4
     4993    013313         JMP     $LEN_A         {LENGTH IN A REGISTER}
     4994    013314         JMP     $LEN_Q         {LENGTH IN Q REGISTER}
     4995    013315        {JMP     $LEN_X}        {LENGTH IN X REGISTER}
     4996    013315  {$LEN_X NULL}
     4997    013315         MAPT    XR(ROPND),OPMOD
     4998    013317         GENI    (CMPX0 0,DU)
     4999    013321         JMP     $GOZERO
     5000    013322  $LEN_A NULL
     5001    013322         GENI    (CMPA 0,DL)
     5002    013324         JMP     $GOZERO
     5003    013325  $LEN_Q NULL
     5004    013325         GENI    (CMPQ 0,DL)
     5005    013327  $GOZERO NULL
     5006    013327         NEWLAB  WOPND
     5007    013331         GENI    TZE,WOPND
     5008    013333         RTN
     5009    013334         PAGE

PSEUDO CODE ASSEMBLER FOR COBOL85   FILE=Z8HP.:Z8A6TSI       TUE AUG 26 '97 07:51:54.60  PAGE  211
      ESN       ISN       TEXT

     5010    013334 DEFLB START    PEPD
     5011    013334
     5012    013334        DEFLAB  LOP
     5013    013336        CASE
     5014    013340        QUIT
     5015    013341        PAGE

PSEUDO CODE ASSEMBLER FOR COBOL85   FILE=Z8HP.:Z8A6TSI       TUE AUG 26 '97 07:51:54.60  PAGE  212
      ESN       ISN       TEXT

     5016    013341 CVII   START   PEPD
     5017    013341
     5018    013341        WALK    LOP
     5019    013343        ALLOT   NEXT,TYI,XOPND,4,9
     5020    013345
     5021    013345        ASSIGN  AR,FREE
     5022    013347        MAPT    AR,OPMOD,2
     5023    013351        GENI    LDA,LOP
     5024    013353        GENI    STA,XOPND
     5025    013355
     5026    013355        ATTACH  XOPND
     5027    013357        QUIT
     5028    013360        PAGE

PSEUDO CODE ASSEMBLER FOR COBOL85   FILE=Z8HP.:Z8A6TSI       TUE AUG 26 '97 07:51:54.60  PAGE  213
      ESN       ISN       TEXT

     5029    013360 CVID4 START    PEPD
     5030    013360 CVID9 START    PEPD
     5031    013360        WALK    LOP
     5032    013362        DSTATE  TYI4,LOP,XABS
     5033    013364        JMPDV   XABS,3
     5034    013366        JMP     $CVIDA
     5035    013367        JMP     $CVIDQ
     5036    013370        JMP     $CVIDX
     5037    013371        JMP     $CVIDS
     5038    013372
     5039    013372 $CVIDA NULL
     5040    013372 $CVIDQ NULL
     5041    013372 $CVIDX NULL
     5042    013372        STORE   LOP
     5043    013374
     5044    013374 $CVIDS NULL
     5045    013374        ALLOTD  XOPND
     5046    013376        DEFER
     5047    013400        GENI    (BTD ())
     5048    013402        GENI    NDSC9,LOP
     5049    013404        GENI    ADSC9,XOPND
     5050    013406        WRAPUP
     5051    013410
     5052    013410        ATTACH  XOPND
     5053    013412        QUIT
     5054    013413        PAGE

PSEUDO CODE ASSEMBLER FOR COBOL85   FILE=Z8HP.:Z8A6TSI       TUE AUG 26 '97 07:51:54.60  PAGE  214
      ESN       ISN       TEXT

     5055    013413 CVDSF START    PEPD
     5056    013413        WALK    LOP
     5057    013415        CASE    CABS
     5058    013417        JMPDV   CABS,1
     5059    013421        JMP     $ZIPSF
     5060    013422        JMP     $NZIPSF
     5061    013423
     5062    013423 $ZIPSF  NULL
     5063    013423        DECCNT  LOP
     5064    013425        QUIT
     5065    013426
     5066    013426 $NZIPSF NULL
     5067    013426        ALLOTD  XOPND
     5068    013430        DEFER
     5069    013432        GENI    (MVN (0,0,0,N),(0,0,0,N))
     5070    013434        GENI    NDSC9,LOP
     5071    013436        GENI    NDSC9,XOPND
     5072    013440        WRAPUP
     5073    013442
     5074    013442        ATTACH  XOPND
     5075    013444        QUIT
     5076    013445        PAGE

PSEUDO CODE ASSEMBLER FOR COBOL85   FILE=Z8HP.:Z8A6TSI       TUE AUG 26 '97 07:51:54.60  PAGE  215
      ESN       ISN       TEXT

     5077    013445 CVDI  START    PEPD
     5078    013445        WALK    LOP
     5079    013447        ALLOTD  XOPND
     5080    013451        DEFER
     5081    013453        GENI    (DTB ())
     5082    013455        GENI    NDSC9,LOP
     5083    013457        GENI    ADSC9,XOPND
     5084    013461        WRAPUP
     5085    013463
     5086    013463        ATTACH  XOPND
     5087    013465        QUIT
     5088    013466        PAGE

PSEUDO CODE ASSEMBLER FOR COBOL85   FILE=Z8HP.:Z8A6TSI       TUE AUG 26 '97 07:51:54.60  PAGE  216
      ESN       ISN       TEXT

     5089    013466
     5090    013466 MVJI  START    PEPD
     5091    013466        WALK2
     5092    013470
     5093    013470        MOVE    COMCOM(DPS88),PCOM(EABS)
     5094    013472
     5095    013472        JMPDV   EABS,1
     5096    013474        JMP     $ELS
     5097    013475       {JMP     $DPS88}
     5098    013475
     5099    013475 $DPS88 NULL
     5100    013475        DEFER
     5101    013477        GENI    (MRF ,,1,1)
     5102    013501        GENI    NDSC9,ROP
     5103    013503        GENI    NDSC9,LOP
     5104    013505        WRAPUP
     5105    013507
     5106    013507        QUIT
     5107    013510
     5108    013510 $ELS   NULL
     5109    013510        ASSIGN  AR,FREE
     5110    013512        DEFER
     5111    013514        MAPT     AR,RECR,1
     5112    013516        GENI     (MTR )
     5113    013520        GENI     SDSC8,ROP
     5114    013522        WRAPUP
     5115    013524        MAPT     AR,OPMOD
     5116    013526        GENI     STA,LOP
     5117    013530        ASSIGN   AR,USED
     5118    013532        QUIT
     5119    013533        PAGE

PSEUDO CODE ASSEMBLER FOR COBOL85   FILE=Z8HP.:Z8A6TSI       TUE AUG 26 '97 07:51:54.60  PAGE  217
      ESN       ISN       TEXT

     5120    013533 CVJI  START    PEPD
     5121    013533        WALK    LOP
     5122    013535
     5123    013535        MOVE    COMCOM(ELS),PCOM(EABS)
     5124    013537        JMPDV   EABS,1
     5125    013541        JMP     $NON_ELS_DPS88
     5126    013542       {JMP     $ELS_DPS88}
     5127    013542
     5128    013542 $ELS_DPS88  NULL
     5129    013542        MOVE    COMCOM(DPS88),PCOM(EABS)
     5130    013544
     5131    013544        JMPDV   EABS,1
     5132    013546        JMP     $ELS
     5133    013547       {JMP     $DPS88}
     5134    013547
     5135    013547 $DPS88 NULL
     5136    013547        ALLOTD  XOPND
     5137    013551
     5138    013551        DEFER
     5139    013553        GENI    (MRF ,,1,1)
     5140    013555        GENI    NDSC9,LOP
     5141    013557        GENI    NDSC9,XOPND
     5142    013561        WRAPUP
     5143    013563
     5144    013563        ATTACH  XOPND
     5145    013565        QUIT
     5146    013566
     5147    013566 $ELS   NULL
     5148    013566        ASSIGN  AR,FREE
     5149    013570        DEFER
     5150    013572        MAPT     AR,RECR,1
     5151    013574        GENI     (MTR )
     5152    013576        GENI     SDSC8,LOP

PSEUDO CODE ASSEMBLER FOR COBOL85   FILE=Z8HP.:Z8A6TSI       TUE AUG 26 '97 07:51:54.60  PAGE  218
      ESN       ISN       TEXT

     5153    013600        WRAPUP
     5154    013602        ASSIGN   AR,USED
     5155    013604        QUIT
     5156    013605 $NON_ELS_DPS88 NULL
     5157    013605
     5158    013605        MOVE    ILL(ROP),PCOM(CABS)
     5159    013607        MOVE    ILL(ROP),PCOM(BABS)
     5160    013611        SHIFTR  PCOM(BABS),DECIMAL(4)
     5161    013613        AND     OCTAL(000000000017),PCOM(CABS)
     5162    013615
     5163    013615        JMPDV   CABS,9
     5164    013617        JMP     $CVJ160                  {16-Bit, Byte 0}
     5165    013620        JMP     $CVJ161                  {16-Bit, Byte 1}
     5166    013621        JMP     $CVJ162                  {16-Bit, Byte 2}
     5167    013622        JMP     $CVJ163                  {16-Bit, Byte 3}
     5168    013623        JMP     $CVJ16U                  {16-Bit, Byte unknown}
     5169    013624
     5170    013624 $CVJ160 NULL
     5171    013624        GOSUB   SYNC
     5172    013625 $CVJI16 NULL
     5173    013625        GENI    (LRL 26)                {First 8 bits}
     5174    013627        GOSUB   SHFT1_                  {Shift remaining 1 byte}
     5175    013630        GENI    (QRS 20)                {Right justify}
     5176    013632        JMP     $CVJI_Q
     5177    013633
     5178    013633 $CVJ161 NULL
     5179    013633        GOSUB   NSYNC
     5180    013634        GENI    (LRL 17)                {First 8 bits}
     5181    013636        GOSUB   SHFT1_                  {Shift remaining 1 byte}
     5182    013637        GENI    (QRS 20)                {Right justify}
     5183    013641        JMP     $CVJI_Q
     5184    013642
     5185    013642 $CVJ162 NULL
     5186    013642        GOSUB   NSYNC

PSEUDO CODE ASSEMBLER FOR COBOL85   FILE=Z8HP.:Z8A6TSI       TUE AUG 26 '97 07:51:54.60  PAGE  219
      ESN       ISN       TEXT

     5187    013643        GENI    (LRL 8)                 {First 8 bits}
     5188    013645        GOSUB   SHFT1_                  {Shift remaining 1 byte}
     5189    013646        GENI    (QRS 20)                {Right justify}
     5190    013650        JMP     $CVJI_Q
     5191    013651
     5192    013651 $CVJ163 NULL
     5193    013651        GOSUB   NSYNC
     5194    013652        GENI    (QLS 1)                 {First 8 bits}
     5195    013654        GOSUB   SHFT1                   {Shift only 8 bits of byte}
     5196    013655        GENI    (QRS 20)                {Right justify}
     5197    013657        JMP     $CVJI_Q
     5198    013660
     5199    013660 $CVJ16U NULL
     5200    013660        GOSUB   CV_IUN                  {Load from unknown byte boundary}
     5201    013661        JMP     $CVJI16                  {Handle normal case now.}
     5202    013662
     5203    013662
     5204    013662 $CVJI_Q NULL
     5205    013662        DECCNT  LOP
     5206    013664        ASSIGN AR(Q),USED
     5207    013666        QUIT
     5208    013667        PAGE

PSEUDO CODE ASSEMBLER FOR COBOL85   FILE=Z8HP.:Z8A6TSI       TUE AUG 26 '97 07:51:54.60  PAGE  220
      ESN       ISN       TEXT

     5209    013667 MVKI  START    PEPD
     5210    013667        WALK2
     5211    013671
     5212    013671        MOVE    COMCOM(DPS88),PCOM(EABS)
     5213    013673        JMPDV   EABS,1
     5214    013675        JMP     $ELS
     5215    013676       {JMP     $DPS88}
     5216    013676
     5217    013676
     5218    013676 $DPS88 NULL
     5219    013676
     5220    013676        DEFER
     5221    013700        GENI    (MRF ,,1,1)
     5222    013702        GENI    NDSC9,ROP
     5223    013704        GENI    NDSC9,LOP
     5224    013706        WRAPUP
     5225    013710
     5226    013710        QUIT
     5227    013711
     5228    013711 $ELS   NULL
     5229    013711        ASSIGN  AR,FREE
     5230    013713        DEFER
     5231    013715        MAPT    AR,RECR,1
     5232    013717        GENI    (MTR )
     5233    013721        GENI    SDSC8,ROP
     5234    013723        WRAPUP
     5235    013725
     5236    013725        MAPT    AR,OPMOD
     5237    013727        GENI    STA,LOP
     5238    013731        ASSIGN  AR,USED
     5239    013733
     5240    013733        QUIT
     5241    013734        PAGE

PSEUDO CODE ASSEMBLER FOR COBOL85   FILE=Z8HP.:Z8A6TSI       TUE AUG 26 '97 07:51:54.60  PAGE  221
      ESN       ISN       TEXT

     5242    013734 CVKI  START    PEPD
     5243    013734        WALK    LOP
     5244    013736
     5245    013736        MOVE    COMCOM(ELS),PCOM(EABS)
     5246    013740        JMPDV   EABS,1
     5247    013742        JMP     $NON_ELS_DPS88
     5248    013743       {JMP     $ELS_DPS88}
     5249    013743
     5250    013743 $ELS_DPS88 NULL
     5251    013743        MOVE    COMCOM(DPS88),PCOM(EABS)
     5252    013745        JMPDV   EABS,1
     5253    013747        JMP     $ELS
     5254    013750       {JMP     $DPS88}
     5255    013750
     5256    013750
     5257    013750 $DPS88 NULL
     5258    013750        ALLOTD  XOPND
     5259    013752
     5260    013752        DEFER
     5261    013754        GENI    (MRF ,,1,1)
     5262    013756        GENI    NDSC9,LOP
     5263    013760        GENI    NDSC9,XOPND
     5264    013762        WRAPUP
     5265    013764
     5266    013764        ATTACH  XOPND
     5267    013766        QUIT
     5268    013767
     5269    013767 $ELS   NULL
     5270    013767        ASSIGN  AR,FREE
     5271    013771        DEFER
     5272    013773        MAPT    AR,RECR,1
     5273    013775        GENI    (MTR )
     5274    013777        GENI    SDSC8,LOP

PSEUDO CODE ASSEMBLER FOR COBOL85   FILE=Z8HP.:Z8A6TSI       TUE AUG 26 '97 07:51:54.60  PAGE  222
      ESN       ISN       TEXT

     5275    014001        WRAPUP
     5276    014003        ASSIGN  AR,USED
     5277    014005
     5278    014005        QUIT
     5279    014006
     5280    014006
     5281    014006 $NON_ELS_DPS88 NULL
     5282    014006
     5283    014006        MOVE    ILL(ROP),PCOM(CABS)
     5284    014010        MOVE    ILL(ROP),PCOM(BABS)
     5285    014012        SHIFTR  PCOM(BABS),DECIMAL(4)
     5286    014014        AND     OCTAL(000000000017),PCOM(CABS)
     5287    014016
     5288    014016        JMPDV   CABS,5
     5289    014020        JMP     $CVK_0                   {32-Bit, Byte 0}
     5290    014021        JMP     $CVK_1                   {32-Bit, Byte 1}
     5291    014022        JMP     $CVK_2                   {32-Bit, Byte 2}
     5292    014023        JMP     $CVK_3                   {32-Bit, Byte 3}
     5293    014024        JMP     $CVK_U                   {32-Bit, Byte unknown}
     5294    014025
     5295    014025 $CVK_0 NULL
     5296    014025        GOSUB   SYNC
     5297    014026 $CVKI_ NULL
     5298    014026        GOSUB   SHFT4                   {Shift all 4 bytes into ARQ}
     5299    014027        GENI    (QRS 4)                 {Right justify}
     5300    014031        JMP     $CVKI_Q
     5301    014032
     5302    014032 $CVK_1 NULL
     5303    014032        GOSUB   NSYNC
     5304    014033        GENI    (QLS 1)
     5305    014035        GOSUB   SHFT3                   {Shift remaining 3 bytes into ARQ}
     5306    014036        GENI    (QRS 4)
     5307    014040        JMP     $CVKI_Q
     5308    014041

PSEUDO CODE ASSEMBLER FOR COBOL85   FILE=Z8HP.:Z8A6TSI       TUE AUG 26 '97 07:51:54.60  PAGE  223
      ESN       ISN       TEXT

     5309    014041 $CVK_2 NULL
     5310    014041        GOSUB   NSYNC
     5311    014042        GENI    (LLS 18)
     5312    014044        GOSUB   SHFT4
     5313    014045        GENI    (QRS 4)
     5314    014047        JMP     $CVKI_Q
     5315    014050
     5316    014050 $CVK_3 NULL
     5317    014050        GOSUB   NSYNC
     5318    014051        GENI    (LLS 27)                {Move first 8 bits into ARQ}
     5319    014053        GOSUB   SHFT4                   {Shift remaining 3 bytes}
     5320    014054        GENI    (QRS 4)                 {Right justify}
     5321    014056        JMP     $CVKI_Q
     5322    014057
     5323    014057 $CVK_U NULL
     5324    014057        GOSUB   CV_IUN                  {Unknown source byte boundary}
     5325    014060        JMP     $CVKI_
     5326    014061
     5327    014061
     5328    014061 $CVKI_Q NULL
     5329    014061        DECCNT  LOP
     5330    014063        ASSIGN  AR(Q),USED
     5331    014065        QUIT
     5332    014066
     5333    014066 SYNC   NULL
     5334    014066        ASSIGN  AR(Q),FREE
     5335    014070        DSTATE  TYI4,LOP,XABS
     5336    014072        JMPDV   XABS,3
     5337    014074        RTN                          { LOP IN A }
     5338    014075        JMP     $SYNC_B              { LOP IN Q }
     5339    014076        JMP     $SYNC_B              { LOP IN ST}
     5340    014077       {JMP     $SYNC_B                INDEX REG}
     5341    014077
     5342    014077 $SYNC_B NULL

PSEUDO CODE ASSEMBLER FOR COBOL85   FILE=Z8HP.:Z8A6TSI       TUE AUG 26 '97 07:51:54.60  PAGE  224
      ESN       ISN       TEXT

     5343    014077        INCCNT  LOP
     5344    014101        ASSIGN  AR(A),FREE
     5345    014103        GENI    LDA,LOP
     5346    014105        RTN
     5347    014106
     5348    014106 NSYNC  NULL
     5349    014106        INCCNT  LOP
     5350    014110        JMPDV   BABS,1                  {Boundary portion of code}
     5351    014112        JMP     $CVKI_O                  {Odd word}
     5352    014113        JMP     $CVKI_E                  {Even word}
     5353    014114
     5354    014114 $CVKI_O NULL
     5355    014114        ASSIGN  AR(AQ),FREE
     5356    014116        MOVE    DECIMAL(1),PCOM(OABS)
     5357    014120        OFFSET  LOP,OABS,ZOPND
     5358    014122        GENI    LDA,LOP
     5359    014124        GENI    LDQ,ZOPND
     5360    014126        RTN
     5361    014127
     5362    014127 $CVKI_E NULL
     5363    014127        ASSIGN  AR(AQ),FREE
     5364    014131        GENI    LDAQ,LOP
     5365    014133        RTN
     5366    014134
     5367    014134 CV_IUN NULL
     5368    014134        INCCNT  LOP
     5369    014136        ALLOT   NEXT,TYA,XOPND,4,9
     5370    014140
     5371    014140        DEFER
     5372    014142        GENI    (MLR (0,0,0,N),(0,0,0,N))
     5373    014144        GENI    ADSC9,LOP
     5374    014146        GENI    ADSC9,XOPND
     5375    014150        WRAPUP
     5376    014152

PSEUDO CODE ASSEMBLER FOR COBOL85   FILE=Z8HP.:Z8A6TSI       TUE AUG 26 '97 07:51:54.60  PAGE  225
      ESN       ISN       TEXT

     5377    014152        ASSIGN  AR(AQ),FREE
     5378    014154        GENI    LDA,XOPND
     5379    014156        RTN
     5380    014157
     5381    014157 SHFT4  GENI    (LRL 8)
     5382    014161 SHFT3_ GENI    (ARL 1)
     5383    014163 SHFT3  GENI    (LRL 8)
     5384    014165 SHFT2_ GENI    (ARL 1)
     5385    014167 SHFT2  GENI    (LRL 8)
     5386    014171 SHFT1_ GENI    (ARL 1)
     5387    014173 SHFT1  GENI    (LRL 8)
     5388    014175        RTN
     5389    014176
     5390    014176        PAGE

PSEUDO CODE ASSEMBLER FOR COBOL85   FILE=Z8HP.:Z8A6TSI       TUE AUG 26 '97 07:51:54.60  PAGE  226
      ESN       ISN       TEXT

     5391    014176 CVHI  START    PEPD
     5392    014176        WALK    LOP
     5393    014200        DSTATE  TYH2,LOP,XABS
     5394    014202        JMPDV   XABS,3
     5395    014204        JMP     $CVHIAQ
     5396    014205        JMP     $CVHIAQ
     5397    014206        JMP     $CVHIX
     5398    014207       {JMP     $CVHIS}
     5399    014207
     5400    014207 {$CVHIS NULL}
     5401    014207        MOVE    ILL(ROP),PCOM(XABS)
     5402    014211        JMPDV   XABS,2
     5403    014213        JMP     $CVHISU                 {LOP=ST, FROM UPPER}
     5404    014214        JMP     $CVHISL                 {LOP=ST, FROM LOWER}
     5405    014215        JMP     $CVHISN
     5406    014216
     5407    014216 $CVHISU NULL
     5408    014216        ASSIGN  AR,FREE
     5409    014220        MAPT    AR,OPMOD,2
     5410    014222        GENI    LDA,LOP
     5411    014224        GENI    (ARS 18)
     5412    014226        ASSIGN  AR,USED
     5413    014230        QUIT
     5414    014231
     5415    014231 $CVHISL NULL
     5416    014231        ASSIGN  AR,FREE
     5417    014233        MAPT    AR,OPMOD,3
     5418    014235        GENI    LDA,LOP
     5419    014237        GENI    (ALS 18)
     5420    014241        GENI    (ARS 18)
     5421    014243        ASSIGN  AR,USED
     5422    014245        QUIT
     5423    014246

PSEUDO CODE ASSEMBLER FOR COBOL85   FILE=Z8HP.:Z8A6TSI       TUE AUG 26 '97 07:51:54.60  PAGE  227
      ESN       ISN       TEXT

     5424    014246 $CVHIAQ NULL
     5425    014246        ASSIGN  AR(LOP),FREE
     5426    014250        DECCNT  LOP
     5427    014252        MOVE    ILL(ROP),PCOM(XABS)
     5428    014254        JMPDV   XABS,2
     5429    014256        JMP     $CVHIAU         {AR, upper}
     5430    014257        JMP     $CVHIAL         {AR, lower}
     5431    014260        JMP     $CVHISN         {Not expected to happen}
     5432    014261
     5433    014261 $CVHIAU NULL
     5434    014261        MAPT    AR,OPMOD
     5435    014263        GENI    (ARS 18)
     5436    014265        ASSIGN  AR,USED
     5437    014267        QUIT
     5438    014270
     5439    014270 $CVHIAL NULL
     5440    014270        MAPT    AR,OPMOD,2
     5441    014272        GENI    (ALS 18)
     5442    014274        GENI    (ARS 18)
     5443    014276        ASSIGN  AR,USED
     5444    014300        QUIT
     5445    014301
     5446    014301 $CVHISN NULL
     5447    014301        ALLOT   NEXT,TYI,XOPND,4,9
     5448    014303
     5449    014303        DEFER
     5450    014305        GENI    (MLR (0,0,0,N),(0,0,0,N))
     5451    014307        GENI    ADSC9,LOP
     5452    014311        GENI    ADSC9,XOPND
     5453    014313        WRAPUP
     5454    014315
     5455    014315        ASSIGN  AR,FREE
     5456    014317        MAPT    AR,OPMOD,2
     5457    014321        GENI    LDA,XOPND

PSEUDO CODE ASSEMBLER FOR COBOL85   FILE=Z8HP.:Z8A6TSI       TUE AUG 26 '97 07:51:54.60  PAGE  228
      ESN       ISN       TEXT

     5458    014323        GENI    (ARS 18)
     5459    014325        ASSIGN  AR,USED
     5460    014327        QUIT
     5461    014330
     5462    014330 $CVHIX NULL
     5463    014330        ASSIGN  AR,FREE
     5464    014332        MAPT    XR(LOP),TAGMOD
     5465    014334        MAPT    AR,OPMOD
     5466    014336        GENI    (EAA 0,N)
     5467    014340        MAPT    AR,OPMOD
     5468    014342        GENI    (ARS 18)
     5469    014344        ASSIGN  AR,USED
     5470    014346        DECCNT  LOP
     5471    014350        QUIT
     5472    014351        PAGE

PSEUDO CODE ASSEMBLER FOR COBOL85   FILE=Z8HP.:Z8A6TSI       TUE AUG 26 '97 07:51:54.60  PAGE  229
      ESN       ISN       TEXT

     5473    014351 CVRI  START    PEPD
     5474    014351        WALK    LOP
     5475    014353        DSTATE  TYR2,LOP,XABS
     5476    014355        JMPDV   XABS,1
     5477    014357        JMP     $CVRIR
     5478    014360        JMP     $CVRIS
     5479    014361
     5480    014361 $CVRIR NULL
     5481    014361        DECCNT  LOP
     5482    014363        ASSIGN  AR(EAQ),FREE
     5483    014365        GENI    (FRD 0)
     5484    014367 $CVRI_ NULL
     5485    014367        GENI    (TPL 2,IC)
     5486    014371        MOVE    COMCOM(AONE),PCOM(ZOPND)
     5487    014373        WALK    ZOPND
     5488    014375        GENI    DUFA,ZOPND
     5489    014377
     5490    014377        MOVE    COMCOM(HEX),PCOM(XABS)
     5491    014401        SHIFTR  PCOM(XABS),DECIMAL(35)
     5492    014403        JMPDV   XABS,1
     5493    014405        JMP     $CVRIN                   {NOT HEX}
     5494    014406        JMP     $CVRIH                   {HEX}
     5495    014407
     5496    014407 $CVRIN NULL
     5497    014407        GENI    (UFA 71*1024,DU)
     5498    014411        JMP     $CVRI__
     5499    014412
     5500    014412 $CVRIH NULL
     5501    014412        GENI    (UFA 17408,DU)
     5502    014414        GENI    (LRS 3)
     5503    014416
     5504    014416 $CVRI__ NULL
     5505    014416        ASSIGN  AR(Q),USED

PSEUDO CODE ASSEMBLER FOR COBOL85   FILE=Z8HP.:Z8A6TSI       TUE AUG 26 '97 07:51:54.60  PAGE  230
      ESN       ISN       TEXT

     5506    014420        QUIT
     5507    014421
     5508    014421 $CVRIS NULL
     5509    014421        FAVOR   LOP,AR
     5510    014423        ASSIGN  AR(EAQ),FREE
     5511    014425        GENI    FLD,LOP
     5512    014427        JMP     $CVRI_
     5513    014430        PAGE

PSEUDO CODE ASSEMBLER FOR COBOL85   FILE=Z8HP.:Z8A6TSI       TUE AUG 26 '97 07:51:54.60  PAGE  231
      ESN       ISN       TEXT

     5514    014430 CVQI  START    PEPD
     5515    014430        WALK    LOP
     5516    014432        DSTATE  TYQ2,LOP,XABS
     5517    014434        JMPDV   XABS,1
     5518    014436        JMP     $CVQIR
     5519    014437        JMP     $CVQIS
     5520    014440
     5521    014440 $CVQIR NULL
     5522    014440        DECCNT  LOP
     5523    014442        ASSIGN  AR(EAQ),FREE
     5524    014444        GENI    (DFRD 0)
     5525    014446 $CVQI_ NULL
     5526    014446        GENI    (TPL 2,IC)
     5527    014450        MOVE    COMCOM(AONE),PCOM(ZOPND)
     5528    014452        WALK    ZOPND
     5529    014454        GENI    DUFA,ZOPND
     5530    014456
     5531    014456        MOVE    COMCOM(HEX),PCOM(XABS)
     5532    014460        SHIFTR  PCOM(XABS),DECIMAL(35)
     5533    014462        JMPDV   XABS,1
     5534    014464        JMP     $CVQIN                   {NOT HEX}
     5535    014465        JMP     $CVQIH                   {HEX}
     5536    014466
     5537    014466 $CVQIN NULL
     5538    014466        GENI    (UFA 71*1024,DU)
     5539    014470        JMP     $CVQI__
     5540    014471
     5541    014471 $CVQIH NULL
     5542    014471        GENI    (UFA 17408,DU)
     5543    014473        GENI    (LRS 3)
     5544    014475
     5545    014475 $CVQI__ NULL
     5546    014475        ASSIGN  AR(Q),USED

PSEUDO CODE ASSEMBLER FOR COBOL85   FILE=Z8HP.:Z8A6TSI       TUE AUG 26 '97 07:51:54.60  PAGE  232
      ESN       ISN       TEXT

     5547    014477        QUIT
     5548    014500
     5549    014500 $CVQIS NULL
     5550    014500        FAVOR   LOP,AR
     5551    014502        ASSIGN  AR(EAQ),FREE
     5552    014504        GENI    DFLD,LOP
     5553    014506        JMP     $CVQI_
     5554    014507        QUIT
     5555    014510        PAGE

PSEUDO CODE ASSEMBLER FOR COBOL85   FILE=Z8HP.:Z8A6TSI       TUE AUG 26 '97 07:51:54.60  PAGE  233
      ESN       ISN       TEXT

     5556    014510 CVIR  START    PEPD
     5557    014510        WALK    LOP
     5558    014512 $CVIR00 NULL
     5559    014512        DSTATE  TYI4,LOP,XABS
     5560    014514        JMPDV   XABS,3
     5561    014516        JMP     $CVIRA
     5562    014517        JMP     $CVIRQ
     5563    014520        JMP     $CVIRX
     5564    014521        JMP     $CVIRS
     5565    014522
     5566    014522 $CVIRA NULL
     5567    014522        DECCNT  LOP
     5568    014524        ASSIGN  AR(EAQ),FREE
     5569    014526 $CVIR_1 NULL
     5570    014526        GENI    (LRS 36)
     5571    014530 $CVIR_2 NULL
     5572    014530
     5573    014530        MOVE    COMCOM(HEX),PCOM(XABS)
     5574    014532        SHIFTR  PCOM(XABS),DECIMAL(35)
     5575    014534        JMPDV   XABS,1
     5576    014536        JMP     $CVIRN                   {NOT HEX}
     5577    014537        JMP     $CVIRH                   {HEX}
     5578    014540
     5579    014540 $CVIRN NULL
     5580    014540        GENI    (LDE 31*1024,DU)
     5581    014542        JMP     $CVIR__
     5582    014543
     5583    014543 $CVIRH NULL
     5584    014543        MOVE OCTAL(042000000000),PCOM(GABS)
     5585    014545        GENI    (LDE 0,DU)
     5586    014547        GENI    (LLS 3)
     5587    014551
     5588    014551 $CVIR__ NULL

PSEUDO CODE ASSEMBLER FOR COBOL85   FILE=Z8HP.:Z8A6TSI       TUE AUG 26 '97 07:51:54.60  PAGE  234
      ESN       ISN       TEXT

     5589    014551        MOVE    OCTAL(400000000000),PCOM(GABS)
     5590    014553        GENI    (FAD 0,DU)
     5591    014555        ASSIGN  AR(EA),USED
     5592    014557        QUIT
     5593    014560
     5594    014560 $CVIRQ NULL
     5595    014560        DECCNT  LOP
     5596    014562        ASSIGN  AR(EAQ),FREE
     5597    014564        GENI    (LLS 36)
     5598    014566        JMP     $CVIR_1
     5599    014567
     5600    014567 $CVIRX NULL
     5601    014567        GOSUB   L_TOAR
     5602    014570        JMP     $CVIR00
     5603    014571
     5604    014571 $CVIRS NULL
     5605    014571        FAVOR   LOP,AR
     5606    014573        ASSIGN  AR(EAQ),FREE
     5607    014575        GENI    LDA,LOP
     5608    014577        JMP     $CVIR_1
     5609    014600        PAGE

PSEUDO CODE ASSEMBLER FOR COBOL85   FILE=Z8HP.:Z8A6TSI       TUE AUG 26 '97 07:51:54.60  PAGE  235
      ESN       ISN       TEXT

     5610    014600 CVQR  START    PEPD
     5611    014600        WALK    LOP
     5612    014602        DSTATE  TYQ2,LOP,XABS
     5613    014604        JMPDV   XABS,1
     5614    014606        JMP     $CVQRR                   {LOP=EAQ}
     5615    014607        JMP     $CVQRS                   {LOP=ST}
     5616    014610
     5617    014610 $CVQRR NULL
     5618    014610        DECCNT  LOP
     5619    014612        ASSIGN  AR(EA),USED
     5620    014614        QUIT
     5621    014615
     5622    014615 $CVQRS NULL
     5623    014615        FAVOR   LOP,AR
     5624    014617        ASSIGN  AR(EAQ),FREE
     5625    014621        GENI    DFLD,LOP
     5626    014623        ASSIGN  AR(EA),USED
     5627    014625        QUIT
     5628    014626        PAGE

PSEUDO CODE ASSEMBLER FOR COBOL85   FILE=Z8HP.:Z8A6TSI       TUE AUG 26 '97 07:51:54.60  PAGE  236
      ESN       ISN       TEXT

     5629    014626 MVIJ  START    PEPD
     5630    014626        WALK2
     5631    014630
     5632    014630        MOVE     COMCOM(ELS),PCOM(YABS)
     5633    014632
     5634    014632        DSTATE   TYI4,ROP,XABS
     5635    014634
     5636    014634        JMPDV    YABS,1
     5637    014636        JMP      $NON_ELS_DPS88
     5638    014637       {JMP      $ELS_DPS88}
     5639    014637
     5640    014637 $ELS_DPS88 NULL
     5641    014637        MOVE     COMCOM(DPS88),PCOM(YABS)
     5642    014641        JMPDV    YABS,1
     5643    014643        JMP      $ELS
     5644    014644       {JMP      $DPS88}
     5645    014644
     5646    014644 $DPS88 NULL
     5647    014644        JMPDV    XABS,3
     5648    014646        JMP      $DPS88_REG
     5649    014647        JMP      $DPS88_REG
     5650    014650        JMP      $DPS88_REG
     5651    014651        JMP      $DPS88_STOR
     5652    014652
     5653    014652 $DPS88_REG NULL
     5654    014652        STORE    ROP
     5655    014654
     5656    014654 $DPS88_STOR
     5657    014654        DEFER
     5658    014656        GENI     (MMF ,,1,1)
     5659    014660        GENI     NDSC9,ROP
     5660    014662        GENI     NDSC9,LOP
     5661    014664        WRAPUP

PSEUDO CODE ASSEMBLER FOR COBOL85   FILE=Z8HP.:Z8A6TSI       TUE AUG 26 '97 07:51:54.60  PAGE  237
      ESN       ISN       TEXT

     5662    014666        QUIT
     5663    014667
     5664    014667
     5665    014667
     5666    014667 $ELS   NULL
     5667    014667        JMPDV    XABS,3
     5668    014671        JMP      $ARA
     5669    014672        JMP      $ARQ
     5670    014673        JMP      $XRN
     5671    014674        JMP      $ST
     5672    014675
     5673    014675 $ARA   NULL
     5674    014675        DECCNT   ROP
     5675    014677        DEFER
     5676    014701        MAPT     AR(A),RECR,1
     5677    014703        GENI     (MTM )
     5678    014705        GENI     SDSC8,LOP
     5679    014707        WRAPUP
     5680    014711        QUIT
     5681    014712
     5682    014712
     5683    014712 $ARQ   NULL
     5684    014712        DECCNT   ROP
     5685    014714        DEFER
     5686    014716        MAPT     AR(Q),RECR,1
     5687    014720        GENI     (MTM )
     5688    014722        GENI     SDSC8,LOP
     5689    014724        WRAPUP
     5690    014726        QUIT
     5691    014727
     5692    014727
     5693    014727 $XRN   NULL
     5694    014727        CASE
     5695    014731        QUIT

PSEUDO CODE ASSEMBLER FOR COBOL85   FILE=Z8HP.:Z8A6TSI       TUE AUG 26 '97 07:51:54.60  PAGE  238
      ESN       ISN       TEXT

     5696    014732
     5697    014732
     5698    014732 $ST    NULL
     5699    014732        ASSIGN    AR,FREE
     5700    014734        MAPT      AR,OPMOD
     5701    014736        GENI      LDA,ROP
     5702    014740
     5703    014740        DEFER
     5704    014742        MAPT      AR,RECR,1
     5705    014744        GENI      (MTM )
     5706    014746        GENI      SDSC8,LOP
     5707    014750        WRAPUP
     5708    014752
     5709    014752        ASSIGN    AR,USED
     5710    014754        QUIT
     5711    014755
     5712    014755
     5713    014755 $NON_ELS_DPS88 NULL
     5714    014755        JMPDV   XABS,3
     5715    014757        JMP     MVIJA                   {ROP=ARA}
     5716    014760        JMP     MVIJQ                   {ROP=ARQ}
     5717    014761        JMP     MVIJX                   {ROP=XRn}
     5718    014762        JMP     MVIJS                   {ROP=ST}
     5719    014763
     5720    014763 MVIJA  NULL
     5721    014763        ASSIGN  AR(AQ),FREE
     5722    014765        GENI    (LRS 36)
     5723    014767
     5724    014767 MVIJQ  NULL
     5725    014767        ASSIGN  AR(AQ),FREE
     5726    014771        GENI    (QLS 4)
     5727    014773
     5728    014773        MOVE    DECIMAL(4),PCOM(IABS)
     5729    014775 MVIJLP NULL

PSEUDO CODE ASSEMBLER FOR COBOL85   FILE=Z8HP.:Z8A6TSI       TUE AUG 26 '97 07:51:54.60  PAGE  239
      ESN       ISN       TEXT

     5730    014775        GENI    (ALS 1)                 {Assure that 0th bit of each byte 0}
     5731    014777        GENI    (LLS 8)                 {Move the 8 bits into ARA}
     5732    015001        BCT     PCOM(IABS),MVIJLP
     5733    015003
     5734    015003        MOVE    ILL(CODE),PCOM(CABS)
     5735    015005        AND     OCTAL(000000000017),PCOM(CABS)
     5736    015007
     5737    015007        JMPDV   CABS,5
     5738    015011        JMP     MVJ_0                   {16-Bit, Byte 0}
     5739    015012        JMP     MVJ_1                   {16-Bit, Byte 1}
     5740    015013        JMP     MVJ_2                   {16-Bit, Byte 2}
     5741    015014        JMP     MVJ_3                   {16-Bit, Byte 3}
     5742    015015        JMP     MVJ_U                   {16-Bit, Byte unknown}
     5743    015016
     5744    015016 MVJ_0  NULL
     5745    015016        ASSIGN  XR,FREE
     5746    015020        MAPT    XR,OPMOD,2
     5747    015022        GENI    (EAX0 0,AL)
     5748    015024        GENI    STX0,LOP
     5749    015026        DECCNT  ROP
     5750    015030        QUIT
     5751    015031
     5752    015031 MVJ_1  NULL
     5753    015031        ALLOT   NEXT,TYA,XOPND,4,9
     5754    015033
     5755    015033        GENI    STA,XOPND
     5756    015035        DEFER
     5757    015037        GENI    (MRL (0,0,0,N),(0,0,0,N))
     5758    015041        GENI    ADSC9,XOPND
     5759    015043        GENI    ADSC9,LOP
     5760    015045        WRAPUP
     5761    015047        DECCNT  ROP
     5762    015051        QUIT
     5763    015052

PSEUDO CODE ASSEMBLER FOR COBOL85   FILE=Z8HP.:Z8A6TSI       TUE AUG 26 '97 07:51:54.60  PAGE  240
      ESN       ISN       TEXT

     5764    015052 MVJ_2  NULL
     5765    015052        GENI    (STBA 0,14),LOP         {Octal 14 tag}
     5766    015054        DECCNT  ROP
     5767    015056        QUIT
     5768    015057
     5769    015057 MVJ_3  EQUATE     MVJ_1
     5770    015057
     5771    015057 MVJ_U  EQUATE     MVJ_1
     5772    015057
     5773    015057 MVIJX  NULL
     5774    015057        GOSUB   R_TO_Q
     5775    015060        JMP     MVIJQ                   {ROP=ARQ}
     5776    015061
     5777    015061 MVIJS  NULL
     5778    015061        FAVOR   ROP,ARQ
     5779    015063        INCCNT  ROP
     5780    015065        ASSIGN  AR(Q),FREE
     5781    015067        GENI    LDQ,ROP
     5782    015071        ASSIGN  AR(Q),USED,ROP
     5783    015073        JMP     MVIJQ
     5784    015074        PAGE

PSEUDO CODE ASSEMBLER FOR COBOL85   FILE=Z8HP.:Z8A6TSI       TUE AUG 26 '97 07:51:54.60  PAGE  241
      ESN       ISN       TEXT

     5785    015074 MVIK  START    PEPD
     5786    015074        WALK2
     5787    015076        MOVE     COMCOM(ELS),PCOM(YABS)
     5788    015100
     5789    015100        DSTATE   TYI4,ROP,XABS
     5790    015102
     5791    015102        JMPDV    YABS,1
     5792    015104        JMP      $NON_ELS_DPS88
     5793    015105       {JMP      $ELS_DPS88}
     5794    015105
     5795    015105 $ELS_DPS88 NULL
     5796    015105        MOVE     COMCOM(DPS88),PCOM(YABS)
     5797    015107
     5798    015107        JMPDV    YABS,1
     5799    015111        JMP      $ELS
     5800    015112       {JMP      $DPS88}
     5801    015112
     5802    015112
     5803    015112 $DPS88 NULL
     5804    015112        JMPDV    XABS,3
     5805    015114        JMP      $DPS88_REG
     5806    015115        JMP      $DPS88_REG
     5807    015116        JMP      $DPS88_REG
     5808    015117        JMP      $DPS88_STOR
     5809    015120
     5810    015120 $DPS88_REG NULL
     5811    015120        STORE    ROP
     5812    015122
     5813    015122 $DPS88_STOR
     5814    015122        DEFER
     5815    015124        GENI     (MMF ,,1,1)
     5816    015126        GENI     NDSC9,ROP
     5817    015130        GENI     NDSC9,LOP

PSEUDO CODE ASSEMBLER FOR COBOL85   FILE=Z8HP.:Z8A6TSI       TUE AUG 26 '97 07:51:54.60  PAGE  242
      ESN       ISN       TEXT

     5818    015132        WRAPUP
     5819    015134        QUIT
     5820    015135
     5821    015135
     5822    015135 $NON_ELS_DPS88 NULL
     5823    015135        JMPDV   XABS,3
     5824    015137        JMP     MVIKA                   {ROP=ARA}
     5825    015140        JMP     MVIKQ                   {ROP=ARQ}
     5826    015141        JMP     MVIKX                   {ROP=XRn}
     5827    015142        JMP     MVIKS                   {ROP=ST}
     5828    015143
     5829    015143
     5830    015143 $ELS   NULL
     5831    015143        JMPDV   XABS,3
     5832    015145        JMP     $ARA                  {ROP = ARA}
     5833    015146        JMP     $ARQ                  {ROP = ARQ}
     5834    015147        JMP     $XRN                  {ROP = XRN}
     5835    015150        JMP     $ST                   {ROP =  ST}
     5836    015151
     5837    015151 $ARA   NULL
     5838    015151        DECCNT  ROP
     5839    015153        DEFER
     5840    015155        MAPT    AR(A),RECR,1
     5841    015157        GENI    (MTM )
     5842    015161        GENI    SDSC8,LOP
     5843    015163        WRAPUP
     5844    015165        QUIT
     5845    015166
     5846    015166
     5847    015166 $ARQ   NULL
     5848    015166        DECCNT   ROP
     5849    015170        DEFER
     5850    015172        MAPT     AR(Q),RECR,1
     5851    015174        GENI     (MTM )

PSEUDO CODE ASSEMBLER FOR COBOL85   FILE=Z8HP.:Z8A6TSI       TUE AUG 26 '97 07:51:54.60  PAGE  243
      ESN       ISN       TEXT

     5852    015176        GENI     SDSC8,LOP
     5853    015200        WRAPUP
     5854    015202        QUIT
     5855    015203
     5856    015203
     5857    015203 $XRN   NULL
     5858    015203        CASE
     5859    015205        QUIT
     5860    015206
     5861    015206
     5862    015206 $ST    NULL
     5863    015206        ASSIGN    AR,FREE
     5864    015210        MAPT      AR,OPMOD
     5865    015212        GENI      LDA,ROP
     5866    015214
     5867    015214        DEFER
     5868    015216        MAPT      AR,RECR,1
     5869    015220        GENI      (MTM )
     5870    015222        GENI      SDSC8,LOP
     5871    015224        WRAPUP
     5872    015226
     5873    015226        ASSIGN    AR,USED
     5874    015230        QUIT
     5875    015231
     5876    015231
     5877    015231 MVIKA  NULL
     5878    015231        ASSIGN  AR(AQ),FREE
     5879    015233        GENI    (LRS 36)
     5880    015235
     5881    015235 MVIKQ  NULL
     5882    015235        ASSIGN  AR(AQ),FREE
     5883    015237        GENI    (QLS 4)
     5884    015241
     5885    015241        MOVE    DECIMAL(4),PCOM(IABS)

PSEUDO CODE ASSEMBLER FOR COBOL85   FILE=Z8HP.:Z8A6TSI       TUE AUG 26 '97 07:51:54.60  PAGE  244
      ESN       ISN       TEXT

     5886    015243 MVIKLP NULL
     5887    015243        GENI    (ALS 1)                 {Assure that 0th bit of each byte 0}
     5888    015245        GENI    (LLS 8)                 {Move the 8 bits into ARA}
     5889    015247        BCT     PCOM(IABS),MVIKLP
     5890    015251
     5891    015251        MOVE    ILL(CODE),PCOM(CABS)
     5892    015253        AND     OCTAL(000000000017),PCOM(CABS)
     5893    015255
     5894    015255        JMPDV   CABS,5
     5895    015257        JMP     MVK_0                   {32-Bit, Byte 0}
     5896    015260        JMP     MVK_1                   {32-Bit, Byte 1}
     5897    015261        JMP     MVK_2                   {32-Bit, Byte 2}
     5898    015262        JMP     MVK_3                   {32-Bit, Byte 3}
     5899    015263        JMP     MVK_U                   {32-Bit, Byte unknown}
     5900    015264
     5901    015264 MVK_0  NULL
     5902    015264        GENI    STA,LOP
     5903    015266        ASSIGN  AR(A),USED,LOP
     5904    015270        DECCNT  ROP
     5905    015272        QUIT
     5906    015273
     5907    015273 MVK_1  EQUATE     MVJ_1
     5908    015273
     5909    015273 MVK_2  EQUATE     MVJ_1
     5910    015273
     5911    015273 MVK_3  EQUATE     MVJ_1
     5912    015273
     5913    015273 MVK_U  EQUATE     MVJ_1
     5914    015273
     5915    015273
     5916    015273 MVIKX  NULL
     5917    015273        GOSUB   R_TO_Q
     5918    015274        JMP     MVIKQ                   {ROP=ARQ}
     5919    015275

PSEUDO CODE ASSEMBLER FOR COBOL85   FILE=Z8HP.:Z8A6TSI       TUE AUG 26 '97 07:51:54.60  PAGE  245
      ESN       ISN       TEXT

     5920    015275 MVIKS  NULL
     5921    015275        FAVOR   ROP,ARQ
     5922    015277        INCCNT  ROP
     5923    015301        ASSIGN  AR(Q),FREE
     5924    015303        GENI    LDQ,ROP
     5925    015305        ASSIGN  AR(Q),USED,ROP
     5926    015307        JMP     MVIKQ
     5927    015310        PAGE

PSEUDO CODE ASSEMBLER FOR COBOL85   FILE=Z8HP.:Z8A6TSI       TUE AUG 26 '97 07:51:54.60  PAGE  246
      ESN       ISN       TEXT

     5928    015310 MVODR  START   PEPD
     5929    015310 MVOD  START    PEPD
     5930    015310
     5931    015310        WALK    ROP
     5932    015312        WALK    LOP
     5933    015314        WALK    ROP             {In case no longer evaluated}
     5934    015316
     5935    015316        ASSIGN  IND,FREE
     5936    015320        CASE    EABS,ZABS
     5937    015322
     5938    015322        JMPDV   EABS,1
     5939    015324        JMP     $NOT_NO_SIGN_ASCII
     5940    015325        JMP     $NO_SIGN_ASCII
     5941    015326
     5942    015326 $NO_SIGN_ASCII NULL
     5943    015326        JMPDV   ZABS,1
     5944    015330        JMP     $MVOD_NO_SIGN
     5945    015331
     5946    015331        MOVE    OCTAL(000200000000),PCOM(GABS)   {RD bit on}
     5947    015333
     5948    015333 $MVOD_NO_SIGN  DEFER
     5949    015335        GENI    (MVNX ,,1,1)
     5950    015337        GENI    NDSC9,ROP
     5951    015341        GENI    NDSC9,LOP
     5952    015343        WRAPUP
     5953    015345        QUIT
     5954    015346
     5955    015346 $NOT_NO_SIGN_ASCII NULL
     5956    015346        JMPDV   ZABS,1
     5957    015350        JMP     $MVOD_NOT_SIGN
     5958    015351
     5959    015351        MOVE    OCTAL(000200000000),PCOM(GABS)
     5960    015353

PSEUDO CODE ASSEMBLER FOR COBOL85   FILE=Z8HP.:Z8A6TSI       TUE AUG 26 '97 07:51:54.60  PAGE  247
      ESN       ISN       TEXT

     5961    015353 $MVOD_NOT_SIGN NULL
     5962    015353        JMPDV   IABS,1
     5963    015355        JMP     $EBCDIC
     5964    015356        AD      OCTAL(400000000000),PCOM(GABS)  {Set CS bit}
     5965    015360 $EBCDIC NULL
     5966    015360        DEFER
     5967    015362        GENI    (MVNX ,,1,0)
     5968    015364        GENI    NDSC9,ROP
     5969    015366        GENI    NDSC9,LOP
     5970    015370        WRAPUP
     5971    015372        QUIT
     5972    015373
     5973    015373        PAGE

PSEUDO CODE ASSEMBLER FOR COBOL85   FILE=Z8HP.:Z8A6TSI       TUE AUG 26 '97 07:51:54.60  PAGE  248
      ESN       ISN       TEXT

     5974    015373 MVDOR  START    PEPD
     5975    015373 MVDO   START    PEPD
     5976    015373        WALK    ROP
     5977    015375        WALK    LOP
     5978    015377        WALK    ROP             {In case no longer evaluated}
     5979    015401
     5980    015401        CASE    LOPND,UOPND,NOPND,MOPND,OOPND,TABS,EOPND,EABS,ZABS
     5981    015403       {ETC     IABS,MABS,FOPND,YOPND,LABS,ROPND,XABS}
     5982    015403
     5983    015403        GOSUB   CHKLEN
     5984    015404
     5985    015404        MOVE    COMCOM(ELS),PCOM(FABS)
     5986    015406        JMPDV   FABS,1
     5987    015410        JMP     $NON_ELS
     5988    015411       {JMP     $ELS}
     5989    015411
     5990    015411 {$ELS  NULL}
     5991    015411        JMPDV   EABS,1
     5992    015413        JMP     $DONT_NEED_MVN
     5993    015414       {JMP     $NEED_MVN}
     5994    015414
     5995    015414 {$NEED_MVN NULL}
     5996    015414        DEFER
     5997    015416        GENI    (MVN ,,000)
     5998    015420        GENI    NDSC9,ROP
     5999    015422        GENI    NDSC4,EOPND
     6000    015424        WRAPUP
     6001    015426
     6002    015426        JMPDV   ZABS,1
     6003    015430        JMP     $MVDO_NOSIGN
     6004    015431
     6005    015431        MOVE    OCTAL(000200000000),PCOM(GABS)    {RD bit on}
     6006    015433

PSEUDO CODE ASSEMBLER FOR COBOL85   FILE=Z8HP.:Z8A6TSI       TUE AUG 26 '97 07:51:54.60  PAGE  249
      ESN       ISN       TEXT

     6007    015433 $MVDO_NOSIGN   NULL
     6008    015433        JMPDV   IABS,2
     6009    015435        JMP     $NS_EBCDIC                      {Unsigned to EBCDIC}
     6010    015436        JMP     $NS_ASCII                       {Unsigned to ASCII}
     6011    015437        AD      OCTAL(200000000000),PCOM(GABS)  {Unsigned to EBCDIC unsigned}
     6012    015441        JMP     $NS_EBCDIC
     6013    015442 $NS_ASCII NULL
     6014    015442        AD      OCTAL(400000000000),PCOM(GABS)  {Set CS bit}
     6015    015444 $NS_EBCDIC NULL
     6016    015444        DEFER
     6017    015446        GENI    (MVNX)
     6018    015450        GENI    NDSC4,EOPND
     6019    015452        GENI    NDSC9,LOP
     6020    015454        WRAPUP
     6021    015456        JMPDV   LABS,1
     6022    015460        QUIT                   {Length of ROP is constant}
     6023    015461        DEFLAB  WOPND
     6024    015463        QUIT
     6025    015464
     6026    015464 $DONT_NEED_MVN NULL
     6027    015464
     6028    015464        JMPDV   ZABS,1
     6029    015466        JMP     $MVDO_SIGN
     6030    015467
     6031    015467        MOVE    OCTAL(000200000000),PCOM(GABS)   {RD bit on}
     6032    015471
     6033    015471 $MVDO_SIGN NULL
     6034    015471        JMPDV   IABS,2
     6035    015473        JMP     $EBCDIC                         {Unsigned to EBCDIC}
     6036    015474        JMP     $ASCII                          {Unsigned to ASCII}
     6037    015475        AD      OCTAL(200000000000),PCOM(GABS)  {Unsigned to EBCDIC unsigned}
     6038    015477        JMP     $EBCDIC
     6039    015500 $ASCII NULL
     6040    015500        AD      OCTAL(400000000000),PCOM(GABS)  {Set CS bit}

PSEUDO CODE ASSEMBLER FOR COBOL85   FILE=Z8HP.:Z8A6TSI       TUE AUG 26 '97 07:51:54.60  PAGE  250
      ESN       ISN       TEXT

     6041    015502 $EBCDIC NULL
     6042    015502        DEFER
     6043    015504        GENI    (MVNX)
     6044    015506        GENI    NDSC9,ROP
     6045    015510        GENI    NDSC9,LOP
     6046    015512        WRAPUP
     6047    015514        JMPDV   LABS,1
     6048    015516        QUIT                   {Length of ROP is constant}
     6049    015517        DEFLAB  WOPND
     6050    015521        QUIT
     6051    015522
     6052    015522
     6053    015522 $NON_ELS  NULL
     6054    015522                                        {/*#38512*/}
     6055    015522
     6056    015522        INCCNT  ROP
     6057    015524
     6058    015524        JMPDV   TABS,1
     6059    015526        JMP     $LEAD
     6060    015527        JMP     $TRAIL
     6061    015530
     6062    015530 $LEAD NULL
     6063    015530        LIB    OP_DECIMAL_TO_OPUNCH_LEAD,TOPND
     6064    015532        JMP     $MVDO0
     6065    015533
     6066    015533 $TRAIL NULL
     6067    015533        LIB    OP_DECIMAL_TO_OPUNCH_TRAIL,TOPND
     6068    015535       {JMP     $MVDO0}
     6069    015535
     6070    015535 $MVDO0 NULL
     6071    015535        DEFER
     6072    015537        GENI    (MVN (0,0,0,N),(0,0,0,N))
     6073    015541        GENI    NDSC9,ROP
     6074    015543        GENI    NDSC9,UOPND

PSEUDO CODE ASSEMBLER FOR COBOL85   FILE=Z8HP.:Z8A6TSI       TUE AUG 26 '97 07:51:54.60  PAGE  251
      ESN       ISN       TEXT

     6075    015545        WRAPUP
     6076    015547
     6077    015547        DEFER
     6078    015551        GENI    (MVN (0,0,0,N),(0,0,0,N))
     6079    015553        GENI    NDSC9,ROP
     6080    015555        GENI    NDSC9,NOPND             {Nosign LOP}
     6081    015557        WRAPUP
     6082    015561
     6083    015561        ASSIGN  AR(AQ),FREE             {/*#38512*/}
     6084    015563        GENI    LDAQ,LOPND
     6085    015565        GENI    (ANA 15,DL)
     6086    015567        GENI    (QRL 13)
     6087    015571
     6088    015571        WALK    TOPND
     6089    015573
     6090    015573        ALLOT   NEXT,TYI,SOPND,4,9
     6091    015575
     6092    015575        JMPDV   TABS,1
     6093    015577        JMP     $MVDOL
     6094    015600        JMP     $MVDOT
     6095    015601
     6096    015601 $MVDOL NULL
     6097    015601        GENI    (LDA 0,QU*),TOPND
     6098    015603        JMP     $END
     6099    015604
     6100    015604 $MVDOT NULL
     6101    015604        GENI    (LDA 0,AL*),TOPND
     6102    015606 $END   NULL
     6103    015606        GENI    STA,SOPND
     6104    015610
     6105    015610        WALK   OOPND                            {/*38512*/}
     6106    015612        DEFER
     6107    015614        GENI   (MRL (0,0,0,N),(0,0,0,N))
     6108    015616        GENI   ADSC9,SOPND

PSEUDO CODE ASSEMBLER FOR COBOL85   FILE=Z8HP.:Z8A6TSI       TUE AUG 26 '97 07:51:54.60  PAGE  252
      ESN       ISN       TEXT

     6109    015620        GENI   ADSC9,OOPND
     6110    015622        WRAPUP
     6111    015624        JMPDV   IABS,2
     6112    015626        JMP     $EBCDIC1                {EBCDIC, need MVT}
     6113    015627        JMP     $ASCII1                 {ASCII, don't need MVT}
     6114    015630       {JMP     $EBCDIC1}               {EBCDIC no sign, need MVT}
     6115    015630 $EBCDIC1 NULL
     6116    015630        LIB     OP_ASCII_TO_EBCDIC,TOPND
     6117    015632        WALK    TOPND
     6118    015634        DEFER
     6119    015636        GENI    (MVT ,,100)             {Use EBCDIC space}
     6120    015640        GENI    ADSC9,YOPND
     6121    015642        GENI    ADSC9,YOPND
     6122    015644        WRAPUP
     6123    015646        GENI    (VFD 18/3),TOPND
     6124    015650 $ASCII1 NULL
     6125    015650        DECCNT  LOP
     6126    015652        JMPDV   LABS,1
     6127    015654        QUIT                   {Length of ROP is constant}
     6128    015655        DEFLAB  WOPND
     6129    015657        QUIT
     6130    015660        PAGE

PSEUDO CODE ASSEMBLER FOR COBOL85   FILE=Z8HP.:Z8A6TSI       TUE AUG 26 '97 07:51:54.60  PAGE  253
      ESN       ISN       TEXT

     6131    015660 PINC   START PEPD                             { #28298 }
     6132    015660
     6133    015660        WALK    LOP
     6134    015662        INCCNT  LOP,1
     6135    015664        ASSIGN  PR,FREE
     6136    015666        MAPT    PR,OPMOD
     6137    015670        GENI    LDP0,LOP
     6138    015672
     6139    015672        CASE    GABS, JABS
     6140    015674                {GABS --  OFFSET
     6141    015674                 JABS --  1 = 4 BIT, 0 = 9 BIT }
     6142    015674
     6143    015674        SHIFTL  PCOM(GABS),DECIMAL(18)
     6144    015676        ASSIGN  XR,FREE
     6145    015700        MAPT    XR,OPMOD
     6146    015702        GENI    (EAX0)
     6147    015704
     6148    015704
     6149    015704        JMPDV   JABS,1
     6150    015706        JMP     $9_BIT
     6151    015707
     6152    015707 $4_BIT NULL
     6153    015707        MAPT    XR,TAGMOD
     6154    015711        MAPT    PR,TAGMOD
     6155    015713        GENI    (A4BD)
     6156    015715        MAPT    PR,OPMOD
     6157    015717        GENI    STP0,LOP
     6158    015721        ASSIGN  PR,USED
     6159    015723        ASSIGN  XR,USED
     6160    015725        QUIT
     6161    015726
     6162    015726 $9_BIT NULL
     6163    015726        MAPT    XR,TAGMOD

PSEUDO CODE ASSEMBLER FOR COBOL85   FILE=Z8HP.:Z8A6TSI       TUE AUG 26 '97 07:51:54.60  PAGE  254
      ESN       ISN       TEXT

     6164    015730        MAPT    PR,TAGMOD
     6165    015732        GENI    (A9BD)
     6166    015734        MAPT    PR,OPMOD
     6167    015736        GENI    STP0,LOP
     6168    015740        ASSIGN  XR,USED
     6169    015742        ASSIGN  PR,USED
     6170    015744        QUIT
     6171    015745        PAGE

PSEUDO CODE ASSEMBLER FOR COBOL85   FILE=Z8HP.:Z8A6TSI       TUE AUG 26 '97 07:51:54.60  PAGE  255
      ESN       ISN       TEXT

     6172    015745 MVFIL START    PEPD
     6173    015745        WALK2
     6174    015747        CASE    DABS,GABS
     6175    015751        DEFER
     6176    015753        JMPDV   DABS,1
     6177    015755        JMP     $MLR
     6178    015756        GENI    MRL
     6179    015760        JMP     $CONTINUE_A
     6180    015761 $MLR   NULL
     6181    015761        GENI    MLR
     6182    015763 $CONTINUE_A NULL
     6183    015763        GENI    ADSC9,ROP
     6184    015765        GENI    ADSC9,LOP
     6185    015767        WRAPUP
     6186    015771        QUIT
     6187    015772        PAGE

PSEUDO CODE ASSEMBLER FOR COBOL85   FILE=Z8HP.:Z8A6TSI       TUE AUG 26 '97 07:51:54.60  PAGE  256
      ESN       ISN       TEXT

     6188    015772 CVIQ  START    PEPD
     6189    015772        WALK    LOP
     6190    015774 $CVIQ00 NULL
     6191    015774        DSTATE  TYI4,LOP,XABS
     6192    015776        JMPDV   XABS,3
     6193    016000        JMP     $CVIQA
     6194    016001        JMP     $CVIQQ
     6195    016002        JMP     $CVIQX
     6196    016003        JMP     $CVIQS
     6197    016004
     6198    016004 $CVIQA NULL
     6199    016004        DECCNT  LOP
     6200    016006        ASSIGN  AR(EAQ),FREE
     6201    016010 $CVIQ_1 NULL
     6202    016010        GENI    (LRS 36)
     6203    016012 $CVIQ_2 NULL
     6204    016012        MOVE    COMCOM(HEX),PCOM(XABS)
     6205    016014        SHIFTR  PCOM(XABS),DECIMAL(35)
     6206    016016        JMPDV   XABS,1
     6207    016020        JMP     $CVIQN                   {NOT HEX}
     6208    016021        JMP     $CVIQH                   {HEX}
     6209    016022
     6210    016022 $CVIQN NULL
     6211    016022        GENI    (LDE 31*1024,DU)
     6212    016024        JMP     $CVIQ__
     6213    016025
     6214    016025 $CVIQH NULL
     6215    016025        MOVE    OCTAL(042000000000),PCOM(GABS)
     6216    016027        GENI    (LDE 0,DU)
     6217    016031        GENI    (LLS 3)
     6218    016033
     6219    016033 $CVIQ__ NULL
     6220    016033        MOVE    OCTAL(400000000000),PCOM(GABS)

PSEUDO CODE ASSEMBLER FOR COBOL85   FILE=Z8HP.:Z8A6TSI       TUE AUG 26 '97 07:51:54.60  PAGE  257
      ESN       ISN       TEXT

     6221    016035        GENI    (FAD 0,DU)
     6222    016037        ASSIGN  AR(EAQ),USED
     6223    016041        QUIT
     6224    016042
     6225    016042 $CVIQQ NULL
     6226    016042        DECCNT  LOP
     6227    016044        ASSIGN  AR(EAQ),FREE
     6228    016046        GENI    (LLS 36)
     6229    016050        JMP     $CVIQ_1
     6230    016051
     6231    016051 $CVIQX NULL
     6232    016051        GOSUB   L_TOAR
     6233    016052        JMP     $CVIQ00
     6234    016053
     6235    016053 $CVIQS NULL
     6236    016053        FAVOR   LOP,AR
     6237    016055        ASSIGN  AR(EAQ),FREE
     6238    016057        GENI    LDA,LOP
     6239    016061        JMP     $CVIQ_1
     6240    016062        QUIT
     6241    016063        PAGE

PSEUDO CODE ASSEMBLER FOR COBOL85   FILE=Z8HP.:Z8A6TSI       TUE AUG 26 '97 07:51:54.60  PAGE  258
      ESN       ISN       TEXT

     6242    016063 CVRQ  START    PEPD
     6243    016063        WALK    LOP
     6244    016065        DSTATE  TYR2,LOP,XABS
     6245    016067        JMPDV   XABS,1
     6246    016071        JMP     $CVRQR                   {LOP=EA}
     6247    016072        JMP     $CVRQS                   {LOP=ST}
     6248    016073
     6249    016073 $CVRQR NULL
     6250    016073        CASE    XABS                    {HAS ARQ BEEN USED?}
     6251    016075        JMPDV   XABS,1
     6252    016077        JMP     $CVRQRF                  {ARQ=NOT BEEN USED}
     6253    016100        JMP     $CVRQRU                  {ARQ=FILTHY}
     6254    016101
     6255    016101 $CVRQRF NULL
     6256    016101        DECCNT  LOP
     6257    016103        ASSIGN  AR(EAQ),USED
     6258    016105        QUIT
     6259    016106
     6260    016106 $CVRQRU NULL
     6261    016106        DECCNT  LOP
     6262    016110        ASSIGN  AR(Q),FREE
     6263    016112        GENI    (LDQ 0,DL)
     6264    016114        ASSIGN  AR(EAQ),USED
     6265    016116        QUIT
     6266    016117
     6267    016117
     6268    016117 $CVRQS NULL
     6269    016117        FAVOR   LOP,AR
     6270    016121        ASSIGN  AR(EAQ),FREE
     6271    016123        GENI    FLD,LOP
     6272    016125        ASSIGN  AR(EAQ),USED
     6273    016127        QUIT
     6274    016130        PAGE

PSEUDO CODE ASSEMBLER FOR COBOL85   FILE=Z8HP.:Z8A6TSI       TUE AUG 26 '97 07:51:54.60  PAGE  259
      ESN       ISN       TEXT

     6275    016130 LINOI START    PEPD
     6276    016130        CASE
     6277    016132        QUIT
     6278    016133        PAGE

PSEUDO CODE ASSEMBLER FOR COBOL85   FILE=Z8HP.:Z8A6TSI       TUE AUG 26 '97 07:51:54.60  PAGE  260
      ESN       ISN       TEXT

     6279    016133 END   START    PEPD
     6280    016133        ORGE    DATA
     6281    016135        CASE
     6282    016137        ORGE    PROC
     6283    016141
     6284    016141        CASE
     6285    016143        QUIT
     6286    016144        PAGE

PSEUDO CODE ASSEMBLER FOR COBOL85   FILE=Z8HP.:Z8A6TSI       TUE AUG 26 '97 07:51:54.60  PAGE  261
      ESN       ISN       TEXT

     6287    016144 EVALU START    PEPD
     6288    016144 WHEN  START    PEPD
     6289    016144        QUIT                            {JUST IN CASE}
     6290    016145        PAGE

PSEUDO CODE ASSEMBLER FOR COBOL85   FILE=Z8HP.:Z8A6TSI       TUE AUG 26 '97 07:51:54.60  PAGE  262
      ESN       ISN       TEXT

     6291    016145 OCCHK START    PEPD
     6292    016145        WALK2
     6293    016147
     6294    016147        ASSIGN  XR(1),FREE
     6295    016151
     6296    016151        LIB    OP_OCCHK,ZOPND
     6297    016153        WALK    ZOPND
     6298    016155
     6299    016155 $OCC00 NULL
     6300    016155        DSTATE  TYI16,LOPROP,XABS
     6301    016157        JMPDV   XABS,15
     6302    016161        JMP     $OCCAA                   {OPTIMIZED ALIAS}
     6303    016162        JMP     $OCCAQ                   {LOP=ARA,ROP=ARQ}
     6304    016163        JMP     $OCCAX                   {LOP=ARA,ROP=XRn}
     6305    016164        JMP     $OCCAS                   {LOP=ARA,ROP=ST}
     6306    016165        JMP     $OCCQA                   {LOP=ARQ,ROP=ARA}
     6307    016166        JMP     $OCCQQ                   {OPTIMIZED ALIAS}
     6308    016167        JMP     $OCCQX                   {LOP=ARQ,ROP=XRn}
     6309    016170        JMP     $OCCQS                   {LOP=ARQ,ROP=ST}
     6310    016171        JMP     $OCCXA                   {LOP=XRn,ROP=ARA}
     6311    016172        JMP     $OCCXQ                   {LOP=XRn,ROP=ARQ}
     6312    016173        JMP     $OCCXX                   {LOP=XRn,ROP=XRn}
     6313    016174        JMP     $OCCXS                   {LOP=XRn,ROP=ST}
     6314    016175        JMP     $OCCSA                   {LOP=ST ,ROP=ARA}
     6315    016176        JMP     $OCCSQ                   {LOP=ST ,ROP=ARQ}
     6316    016177        JMP     $OCCSX                   {LOP=ST ,ROP=XRn}
     6317    016200        JMP     $OCCSS                   {LOP=ST ,ROP=ST}
     6318    016201
     6319    016201 $OCCAA NULL
     6320    016201        ASSIGN  AR(LOP),USED
     6321    016203        DECCNT  LOP
     6322    016205        DECCNT  ROP
     6323    016207        DECCNT  ZOPND

PSEUDO CODE ASSEMBLER FOR COBOL85   FILE=Z8HP.:Z8A6TSI       TUE AUG 26 '97 07:51:54.60  PAGE  263
      ESN       ISN       TEXT

     6324    016211        QUIT
     6325    016212
     6326    016212 $OCCAQ NULL
     6327    016212        STORE   ROP
     6328    016214        JMP     $OCCAS
     6329    016215
     6330    016215 $OCCAX NULL
     6331    016215        GOSUB   R_TO_Q
     6332    016216        JMP     $OCCAQ
     6333    016217
     6334    016217 $OCCAS NULL
     6335    016217        GENI    CMPA,ROP
     6336    016221        GENI    (TMOZ 2,IC)
     6337    016223        GENI    TSX1,ZOPND
     6338    016225        ASSIGN  AR(A),USED
     6339    016227        DECCNT  LOP
     6340    016231        QUIT
     6341    016232
     6342    016232 $OCCQA NULL
     6343    016232        STORE   ROP
     6344    016234        JMP     $OCCQS
     6345    016235
     6346    016235 $OCCQQ  EQUATE     $OCCAA
     6347    016235
     6348    016235 $OCCQX NULL
     6349    016235        GOSUB   R_TO_A
     6350    016236        JMP     $OCCQA
     6351    016237
     6352    016237 $OCCQS NULL
     6353    016237        GENI    CMPQ,ROP
     6354    016241        GENI    (TMOZ 2,IC)
     6355    016243        GENI    TSX1,ZOPND
     6356    016245        ASSIGN  AR(Q),USED
     6357    016247        DECCNT  LOP

PSEUDO CODE ASSEMBLER FOR COBOL85   FILE=Z8HP.:Z8A6TSI       TUE AUG 26 '97 07:51:54.60  PAGE  264
      ESN       ISN       TEXT

     6358    016251        QUIT
     6359    016252
     6360    016252 $OCCXA NULL
     6361    016252        GOSUB   L_TOAR
     6362    016253        JMP     $OCC00
     6363    016254
     6364    016254 $OCCXQ NULL
     6365    016254        STORE   ROP
     6366    016256        JMP     $OCCXS
     6367    016257
     6368    016257 $OCCXX NULL
     6369    016257        GOSUB   L_TOAR
     6370    016260        JMP     $OCC00
     6371    016261
     6372    016261 $OCCXS NULL
     6373    016261        GOSUB   L_TOAR
     6374    016262        JMP     $OCC00
     6375    016263
     6376    016263 $OCCSA NULL
     6377    016263        STORE   ROP
     6378    016265        JMP     $OCCSS
     6379    016266
     6380    016266 $OCCSQ  EQUATE     $OCCSA
     6381    016266
     6382    016266 $OCCSX NULL
     6383    016266        GOSUB   L_TOAR
     6384    016267        JMP     $OCC00
     6385    016270
     6386    016270 $OCCSS NULL
     6387    016270        FAVOR   LOP,AR
     6388    016272        ASSIGN  AR,FREE
     6389    016274        MAPT    AR,OPMOD
     6390    016276        GENI    LDA,LOP
     6391    016300        MAPT    AR,OPMOD

PSEUDO CODE ASSEMBLER FOR COBOL85   FILE=Z8HP.:Z8A6TSI       TUE AUG 26 '97 07:51:54.60  PAGE  265
      ESN       ISN       TEXT

     6392    016302        GENI    CMPA,ROP
     6393    016304        GENI    (TMOZ 2,IC)
     6394    016306        GENI    TSX1,ZOPND
     6395    016310        ASSIGN  AR,USED
     6396    016312        QUIT
     6397    016313        PAGE

PSEUDO CODE ASSEMBLER FOR COBOL85   FILE=Z8HP.:Z8A6TSI       TUE AUG 26 '97 07:51:54.60  PAGE  266
      ESN       ISN       TEXT

     6398    016313 SBCHK START    PEPD
     6399    016313        WALK2
     6400    016315
     6401    016315 $SB00 NULL
     6402    016315        DSTATE  TYI16,LOPROP,XABS
     6403    016317        JMPDV   XABS,15
     6404    016321        JMP     $SBAA                    {OPTIMIZED ALIAS}
     6405    016322        JMP     $SBAQ                    {LOP=ARA,ROP=ARQ}
     6406    016323        JMP     $SBAX                    {LOP=ARA,ROP=XRn}
     6407    016324        JMP     $SBAS                    {LOP=ARA,ROP=ST}
     6408    016325        JMP     $SBQA                    {LOP=ARQ,ROP=ARA}
     6409    016326        JMP     $SBQQ                    {OPTIMIZED ALIAS}
     6410    016327        JMP     $SBQX                    {LOP=ARQ,ROP=XRn}
     6411    016330        JMP     $SBQS                    {LOP=ARQ,ROP=ST}
     6412    016331        JMP     $SBXA                    {LOP=XRn,ROP=ARA}
     6413    016332        JMP     $SBXQ                    {LOP=XRn,ROP=ARQ}
     6414    016333        JMP     $SBXX                    {LOP=XRn,ROP=XRn}
     6415    016334        JMP     $SBXS                    {LOP=XRn,ROP=ST}
     6416    016335        JMP     $SBSA                    {LOP=ST ,ROP=ARA}
     6417    016336        JMP     $SBSQ                    {LOP=ST ,ROP=ARQ}
     6418    016337        JMP     $SBSX                    {LOP=ST ,ROP=XRn}
     6419    016340        JMP     $SBSS                    {LOP=ST ,ROP=ST}
     6420    016341
     6421    016341 $SBAA NULL
     6422    016341        ASSIGN  AR(LOP),USED
     6423    016343        DECCNT  LOP
     6424    016345        DECCNT  ROP
     6425    016347        QUIT
     6426    016350
     6427    016350 $SBAQ  NULL
     6428    016350        STORE   ROP
     6429    016352        JMP     $SBAS
     6430    016353

PSEUDO CODE ASSEMBLER FOR COBOL85   FILE=Z8HP.:Z8A6TSI       TUE AUG 26 '97 07:51:54.60  PAGE  267
      ESN       ISN       TEXT

     6431    016353 $SBAX  NULL
     6432    016353        GOSUB   R_TO_Q
     6433    016354        JMP     $SBAQ
     6434    016355
     6435    016355 $SBAS  NULL
     6436    016355        GOSUB   SUBCHK_SETUP
     6437    016356        GENI    (CMPA 0,DL)
     6438    016360        GENI    TMOZ,ZOPND
     6439    016362        GENI    CMPA,ROP
     6440    016364        GENI    TPNZ,ZOPND
     6441    016366        ASSIGN  AR(A),USED
     6442    016370        DECCNT  LOP
     6443    016372        QUIT
     6444    016373
     6445    016373 $SBQA  NULL
     6446    016373        STORE   ROP
     6447    016375        JMP     $SBQS
     6448    016376
     6449    016376 $SBQQ  EQUATE     $SBAA
     6450    016376
     6451    016376 $SBQX  NULL
     6452    016376        GOSUB   R_TO_A
     6453    016377        JMP     $SBQA
     6454    016400
     6455    016400 $SBQS  NULL
     6456    016400        GOSUB   SUBCHK_SETUP
     6457    016401        GENI    (CMPQ 0,DL)             {LOWER BOUNDS}
     6458    016403        GENI    TMOZ,ZOPND              {OOPS}
     6459    016405        GENI    CMPQ,ROP                {UPPER BOUNDS}
     6460    016407        GENI    TPNZ,ZOPND              {OOPS AGAIN (EXCUSE ME)}
     6461    016411        ASSIGN   AR(Q),USED
     6462    016413        DECCNT  LOP
     6463    016415        QUIT
     6464    016416 $SBXA  NULL

PSEUDO CODE ASSEMBLER FOR COBOL85   FILE=Z8HP.:Z8A6TSI       TUE AUG 26 '97 07:51:54.60  PAGE  268
      ESN       ISN       TEXT

     6465    016416        GOSUB   L_TOAR
     6466    016417        JMP     $SB00
     6467    016420
     6468    016420 $SBXQ  NULL
     6469    016420        STORE   ROP
     6470    016422        JMP     $SBXS
     6471    016423
     6472    016423 $SBXX  NULL
     6473    016423        GOSUB   L_TOAR
     6474    016424        JMP     $SB00
     6475    016425
     6476    016425 $SBXS  NULL
     6477    016425        GOSUB   L_TOAR
     6478    016426        JMP     $SB00
     6479    016427
     6480    016427 $SBSA  NULL
     6481    016427        STORE   ROP
     6482    016431        JMP     $SBSS
     6483    016432
     6484    016432 $SBSQ  EQUATE     $SBSA
     6485    016432
     6486    016432 $SBSX  NULL
     6487    016432        GOSUB   L_TOAR
     6488    016433        JMP     $SB00
     6489    016434
     6490    016434 $SBSS  NULL
     6491    016434        FAVOR   LOP,AR
     6492    016436        INCCNT  LOP
     6493    016440        ASSIGN  AR,FREE
     6494    016442        MAPT    AR,OPMOD
     6495    016444        GENI    LDA,LOP
     6496    016446        ASSIGN  AR,USED,LOP
     6497    016450        JMP     $SB00
     6498    016451

PSEUDO CODE ASSEMBLER FOR COBOL85   FILE=Z8HP.:Z8A6TSI       TUE AUG 26 '97 07:51:54.60  PAGE  269
      ESN       ISN       TEXT

     6499    016451 SUBCHK_SETUP NULL
     6500    016451
     6501    016451        ASSIGN  XR(1),FREE
     6502    016453        GENI    (EAX1 5,IC)             {Save ret. addr. for lib. call}
     6503    016455
     6504    016455        LIB     OP_SBCHK,ZOPND
     6505    016457        WALK    ZOPND
     6506    016461        INCCNT  ZOPND
     6507    016463        RTN
     6508    016464
     6509    016464        PAGE

PSEUDO CODE ASSEMBLER FOR COBOL85   FILE=Z8HP.:Z8A6TSI       TUE AUG 26 '97 07:51:54.60  PAGE  270
      ESN       ISN       TEXT

     6510    016464 PRESET START    PEPD
     6511    016464        ORGS    LOP
     6512    016466        CASE
     6513    016470        ORGS    RESET
     6514    016472        QUIT
     6515    016473
     6516    016473        PAGE

PSEUDO CODE ASSEMBLER FOR COBOL85   FILE=Z8HP.:Z8A6TSI       TUE AUG 26 '97 07:51:54.60  PAGE  271
      ESN       ISN       TEXT

     6517    016473 PEND   START   PEPD
     6518    016473        ORGE    DATA
     6519    016475        CASE
     6520    016477        ORGE    PROC
     6521    016501        QUIT
     6522    016502        PAGE

PSEUDO CODE ASSEMBLER FOR COBOL85   FILE=Z8HP.:Z8A6TSI       TUE AUG 26 '97 07:51:54.60  PAGE  272
      ESN       ISN       TEXT

     6523    016502 PTR_SET START  PEPD
     6524    016502         ORGS   LOP
     6525    016504
     6526    016504         CASE
     6527    016506
     6528    016506         ORGS   RESET
     6529    016510         QUIT
     6530    016511        PAGE

PSEUDO CODE ASSEMBLER FOR COBOL85   FILE=Z8HP.:Z8A6TSI       TUE AUG 26 '97 07:51:54.60  PAGE  273
      ESN       ISN       TEXT

     6531    016511 PREOFF START  PEPD
     6532    016511         ORGS   LOP
     6533    016513
     6534    016513         CASE
     6535    016515
     6536    016515         ORGS   RESET
     6537    016517         QUIT
     6538    016520        PAGE

PSEUDO CODE ASSEMBLER FOR COBOL85   FILE=Z8HP.:Z8A6TSI       TUE AUG 26 '97 07:51:54.60  PAGE  274
      ESN       ISN       TEXT

     6539    016520 P_P_PRESET  START  PEPD
     6540    016520        ORGS    TO
     6541    016522        CASE
     6542    016524        ORGS    RESET
     6543    016526
     6544    016526        QUIT
     6545    016527        PAGE

PSEUDO CODE ASSEMBLER FOR COBOL85   FILE=Z8HP.:Z8A6TSI       TUE AUG 26 '97 07:51:54.60  PAGE  275
      ESN       ISN       TEXT

     6546    016527 ADEP  START   DEP
     6547    016527        GENI    (ZERO)
     6548    016531        QUIT
     6549    016532        PAGE

PSEUDO CODE ASSEMBLER FOR COBOL85   FILE=Z8HP.:Z8A6TSI       TUE AUG 26 '97 07:51:54.60  PAGE  276
      ESN       ISN       TEXT

     6550    016532 BDEP  START   DEP
     6551    016532
     6552    016532 { The BDEP item is executed by Z8HC$SPECIAL_CASES in the END case
     6553    016532   to generate BASPTRs }
     6554    016532
     6555    016532        GENI    ZERO,*
     6556    016534        QUIT
     6557    016535        PAGE

PSEUDO CODE ASSEMBLER FOR COBOL85   FILE=Z8HP.:Z8A6TSI       TUE AUG 26 '97 07:51:54.60  PAGE  277
      ESN       ISN       TEXT

     6558    016535 CDEP  START   DEP
     6559    016535
     6560    016535 { The CDEP item is executed by Z8HU$ALLOT_TEMP to preset
     6561    016535   the location of a temp to zero. }
     6562    016535
     6563    016535        ORGE    DATA
     6564    016537        GENI    (ZERO 0,0)
     6565    016541        ORGE    PROC
     6566    016543        QUIT
     6567    016544        PAGE

PSEUDO CODE ASSEMBLER FOR COBOL85   FILE=Z8HP.:Z8A6TSI       TUE AUG 26 '97 07:51:54.60  PAGE  278
      ESN       ISN       TEXT

     6568    016544 IDEP   START  DEP
     6569    016544
     6570    016544 { The IDEP item is executed by Z8HC$SPECIAL_CASES when it
     6571    016544   encounters a CCOSU item with the VAL_FREEZE bit set.  IDEP
     6572    016544   will move the CCOSUed item to a temp if necessary. }
     6573    016544
     6574    016544
     6575    016544        CASE   ROPND,JABS,KOPND
     6576    016546
     6577    016546        JMPDV  JABS,5
     6578    016550        QUIT                           {No move is necessary}
     6579    016551        JMP    $ALPHA
     6580    016552        JMP    $NUMERIC
     6581    016553        JMP    $INTEGER_OR_SINGLE_REAL
     6582    016554        JMP    $DOUBLE_REAL
     6583    016555        JMP    $SGN_OVP
     6584    016556
     6585    016556 $NUMERIC NULL
     6586    016556        ALLOTD LOPND
     6587    016560        CASE
     6588    016562        DEFER
     6589    016564        GENI   (MVN (0,0,0,N),(0,0,0,N))
     6590    016566        GENI   NDSC9,ROPND
     6591    016570        GENI   NDSC9,LOPND
     6592    016572        WRAPUP
     6593    016574        JMP    $FINISH
     6594    016575
     6595    016575
     6596    016575 $ALPHA NULL
     6597    016575        ALLOTD LOPND
     6598    016577        CASE
     6599    016601        DEFER
     6600    016603        GENI  (MLR ,,040,0)

PSEUDO CODE ASSEMBLER FOR COBOL85   FILE=Z8HP.:Z8A6TSI       TUE AUG 26 '97 07:51:54.60  PAGE  279
      ESN       ISN       TEXT

     6601    016605        GENI  ADSC9,ROPND
     6602    016607        GENI  ADSC9,LOPND
     6603    016611        WRAPUP
     6604    016613        JMP    $FINISH
     6605    016614
     6606    016614 $INTEGER_OR_SINGLE_REAL   NULL
     6607    016614        ALLOTD LOPND
     6608    016616        CASE
     6609    016620        ASSIGN AR,FREE
     6610    016622        MAPT   AR,OPMOD,2
     6611    016624        GENI   LDA,ROPND
     6612    016626        GENI   STA,LOPND
     6613    016630        JMP    $FINISH
     6614    016631
     6615    016631 $DOUBLE_REAL   NULL
     6616    016631        ALLOTD LOPND
     6617    016633        CASE
     6618    016635        ASSIGN AR(AQ),FREE
     6619    016637        GENI   LDAQ,ROPND
     6620    016641        GENI   STAQ,LOPND
     6621    016643        JMP    $FINISH
     6622    016644
     6623    016644 $SGN_OVP NULL
     6624    016644        ALLOTD LOPND
     6625    016646        CASE   TOPND              {Build a DNA over LOPND}
     6626    016650        DEFER
     6627    016652        GENI   (MLR ,,040,0)
     6628    016654        GENI   ADSC9,KOPND
     6629    016656        GENI   ADSC9,TOPND
     6630    016660        WRAPUP
     6631    016662        DECCNT LOPND
     6632    016664        DECCNT ROPND
     6633    016666        JMP    $FINISH
     6634    016667

PSEUDO CODE ASSEMBLER FOR COBOL85   FILE=Z8HP.:Z8A6TSI       TUE AUG 26 '97 07:51:54.60  PAGE  280
      ESN       ISN       TEXT

     6635    016667 $FINISH NULL
     6636    016667        CASE   LOPND              {Attach lopnd EVEX of CCOSU}
     6637    016671        QUIT
     6638    016672        PAGE

PSEUDO CODE ASSEMBLER FOR COBOL85   FILE=Z8HP.:Z8A6TSI       TUE AUG 26 '97 07:51:54.60  PAGE  281
      ESN       ISN       TEXT

     6639    016672 LDEP  START   DEP
     6640    016672        ORGE    DATA
     6641    016674
     6642    016674 BCT001 NULL
     6643    016674        MOVIND  PCOM(XOPND),PCOM(GABS)
     6644    016676        GENI    (ZERO)
     6645    016700        AD      DECIMAL(1),PCOM(XOPND)
     6646    016702        BCT     PCOM(XABS),BCT001
     6647    016704
     6648    016704        ORGE    PROC
     6649    016706        QUIT
     6650    016707        PAGE

PSEUDO CODE ASSEMBLER FOR COBOL85   FILE=Z8HP.:Z8A6TSI       TUE AUG 26 '97 07:51:54.60  PAGE  282
      ESN       ISN       TEXT

     6651    016707 INDDEP START   DEP
     6652    016707        ALLOT   NEXT,TYI,XOPND,4,9
     6653    016711        GENI    STI,XOPND
     6654    016713        ATTACH  XOPND
     6655    016715        QUIT
     6656    016716
     6657    016716 ARDEPA   START   DEP
     6658    016716        ALLOT   NEXT,TYI,XOPND,4,9
     6659    016720        GENI    STA,XOPND               {SAVE A}
     6660    016722        ATTACH  XOPND
     6661    016724        QUIT
     6662    016725
     6663    016725 ARDEPQ   START   DEP
     6664    016725        ALLOT   NEXT,TYI,XOPND,4,9
     6665    016727        GENI    STQ,XOPND               {SAVE Q}
     6666    016731        ATTACH  XOPND
     6667    016733        QUIT
     6668    016734
     6669    016734 AQDEP  START   DEP
     6670    016734        ALLOT   EVEN,TYI,XOPND,8,9
     6671    016736        GENI    STAQ,XOPND
     6672    016740        ATTACH  XOPND
     6673    016742        QUIT
     6674    016743
     6675    016743 XRDEP0  START   DEP
     6676    016743        ALLOT   NEXT,TYI,XOPND,4,9,PURE
     6677    016745        GENI    SXL0,XOPND
     6678    016747        ATTACH  XOPND
     6679    016751        QUIT
     6680    016752
     6681    016752 XRDEP1  START   DEP
     6682    016752        ALLOT   NEXT,TYI,XOPND,4,9,PURE
     6683    016754        GENI    SXL1,XOPND

PSEUDO CODE ASSEMBLER FOR COBOL85   FILE=Z8HP.:Z8A6TSI       TUE AUG 26 '97 07:51:54.60  PAGE  283
      ESN       ISN       TEXT

     6684    016756        ATTACH  XOPND
     6685    016760        QUIT
     6686    016761
     6687    016761 XRDEP2  START   DEP
     6688    016761        ALLOT   NEXT,TYI,XOPND,4,9,PURE
     6689    016763        GENI    SXL2,XOPND
     6690    016765        ATTACH  XOPND
     6691    016767        QUIT
     6692    016770
     6693    016770 XRDEP3  START   DEP
     6694    016770        ALLOT   NEXT,TYI,XOPND,4,9,PURE
     6695    016772        GENI    SXL3,XOPND
     6696    016774        ATTACH  XOPND
     6697    016776        QUIT
     6698    016777
     6699    016777 XRDEP4  START   DEP
     6700    016777        ALLOT   NEXT,TYI,XOPND,4,9,PURE
     6701    017001        GENI    SXL4,XOPND
     6702    017003        ATTACH  XOPND
     6703    017005        QUIT
     6704    017006
     6705    017006 XRDEP5  START   DEP
     6706    017006        ALLOT   NEXT,TYI,XOPND,4,9,PURE
     6707    017010        GENI    SXL5,XOPND
     6708    017012        ATTACH  XOPND
     6709    017014        QUIT
     6710    017015
     6711    017015 XRDEP6  START   DEP
     6712    017015        ALLOT   NEXT,TYI,XOPND,4,9,PURE
     6713    017017        GENI    SXL6,XOPND
     6714    017021        ATTACH  XOPND
     6715    017023        QUIT
     6716    017024
     6717    017024 XRDEP7  START   DEP

PSEUDO CODE ASSEMBLER FOR COBOL85   FILE=Z8HP.:Z8A6TSI       TUE AUG 26 '97 07:51:54.60  PAGE  284
      ESN       ISN       TEXT

     6718    017024        ALLOT   NEXT,TYI,XOPND,4,9,PURE
     6719    017026        GENI    SXL7,XOPND
     6720    017030        ATTACH  XOPND
     6721    017032        QUIT
     6722    017033
     6723    017033 PRDEP0  START   DEP
     6724    017033        ALLOT   NEXT,TYI,XOPND,4,9
     6725    017035        GENI    STP0,XOPND
     6726    017037        ATTACH  XOPND
     6727    017041        QUIT
     6728    017042
     6729    017042 PRDEP1  START   DEP
     6730    017042        ALLOT   NEXT,TYI,XOPND,4,9
     6731    017044        GENI    STP1,XOPND
     6732    017046        ATTACH  XOPND
     6733    017050        QUIT
     6734    017051
     6735    017051 PRDEP2  START   DEP
     6736    017051        ALLOT   NEXT,TYI,XOPND,4,9
     6737    017053        GENI    STP2,XOPND
     6738    017055        ATTACH  XOPND
     6739    017057        QUIT
     6740    017060
     6741    017060 PRDEP3  START   DEP
     6742    017060        ALLOT   NEXT,TYI,XOPND,4,9
     6743    017062        GENI    STP3,XOPND
     6744    017064        ATTACH  XOPND
     6745    017066        QUIT
     6746    017067
     6747    017067 PRDEP4  START   DEP
     6748    017067        ALLOT   NEXT,TYI,XOPND,4,9
     6749    017071        GENI    STP4,XOPND
     6750    017073        ATTACH  XOPND
     6751    017075        QUIT

PSEUDO CODE ASSEMBLER FOR COBOL85   FILE=Z8HP.:Z8A6TSI       TUE AUG 26 '97 07:51:54.60  PAGE  285
      ESN       ISN       TEXT

     6752    017076
     6753    017076 PRDEP5  START   DEP
     6754    017076        ALLOT   NEXT,TYI,XOPND,4,9
     6755    017100        GENI    STP5,XOPND
     6756    017102        ATTACH  XOPND
     6757    017104        QUIT
     6758    017105
     6759    017105 PRDEP6  START   DEP
     6760    017105        ALLOT   NEXT,TYI,XOPND,4,9
     6761    017107        GENI    STP6,XOPND
     6762    017111        ATTACH  XOPND
     6763    017113        QUIT
     6764    017114
     6765    017114 PRDEP7  START   DEP
     6766    017114        ALLOT   NEXT,TYI,XOPND,4,9
     6767    017116        GENI    STP7,XOPND
     6768    017120        ATTACH  XOPND
     6769    017122        QUIT
     6770    017123
     6771    017123 EADEP  START   DEP
     6772    017123        ALLOT   NEXT,TYR,XOPND,4,9
     6773    017125        GENI    FSTR,XOPND              {SAVE EA}
     6774    017127        ATTACH  XOPND
     6775    017131        QUIT
     6776    017132
     6777    017132 EAQDEP START   DEP
     6778    017132        ALLOT   EVEN,TYQ,XOPND,8,9
     6779    017134        GENI    DFSTR,XOPND             {SAVE EAQ}
     6780    017136        ATTACH  XOPND
     6781    017140        QUIT
     6782    017141        PAGE

PSEUDO CODE ASSEMBLER FOR COBOL85   FILE=Z8HP.:Z8A6TSI       TUE AUG 26 '97 07:51:54.60  PAGE  286
      ESN       ISN       TEXT

     6783    017141 MDEP  START   DEP
     6784    017141
     6785    017141 {MDEP is executed from Z8HG$SAVE_MAYBE if an arithmetic registers
     6786    017141  contents can be moved into an index registers. }
     6787    017141
     6788    017141        ASSIGN  XR,FREE                 {GET A FREE INDEX REGISTER}
     6789    017143        MAPT    XR,OPMOD
     6790    017145        MAPT    AR(STAR),TAGMOD        {Map current triad's reg onto tag}
     6791    017147        GENI    (EAX0 0,N)              {TAG SUPPLIED BY CALLER(SAVE)}
     6792    017151        ASSIGN  *,TO,XR                 {PUT CURRENT TRIAD'S INFO INTO FREED XR}
     6793    017153        QUIT
     6794    017154        PAGE

PSEUDO CODE ASSEMBLER FOR COBOL85   FILE=Z8HP.:Z8A6TSI       TUE AUG 26 '97 07:51:54.60  PAGE  287
      ESN       ISN       TEXT

     6795    017154 L_TO_Q NULL
     6796    017154        IFID    LOP,BASE,NOMVLP
     6797    017156        IFID    LOP,TRIAD,NOMVLP
     6798    017160        ASSIGN  AR(Q),FREE              {FREE THE ARQ}
     6799    017162        MAPT    XR(LOP),TAGMOD          {MAP THE LOP'S REGISTER ONTO TAG}
     6800    017164        GENI    (EAQ 0,N)               {MOVE XRn TO ARQ}
     6801    017166        GENI    (QRS 18)                {MOVE FROM UPPER OF Q TO LOWER}
     6802    017170        ASSIGN  LOP,TO,AR(Q)            {SWITCH RAT GUYS}
     6803    017172        RTN
     6804    017173
     6805    017173 R_TO_Q NULL
     6806    017173        IFID    ROP,BASE,NOMVRP
     6807    017175        IFID    ROP,TRIAD,NOMVRP
     6808    017177        ASSIGN  AR(Q),FREE              {FREE THE ARQ}
     6809    017201        MAPT    XR(ROP),TAGMOD          {MAP THE ROP'S REGISTER ONTO TAG}
     6810    017203        GENI    (EAQ 0,N)               {MOVE XRn TO ARQ}
     6811    017205        GENI    (QRS 18)                {MOVE AND SMEAR}
     6812    017207        ASSIGN  ROP,TO,AR(Q)            {SWITCH RAT GUYS}
     6813    017211        RTN
     6814    017212
     6815    017212 L_TO_A NULL
     6816    017212        IFID    LOP,BASE,NOMVLP
     6817    017214        IFID    LOP,TRIAD,NOMVLP
     6818    017216        ASSIGN  AR(A),FREE              {FREE THE ARA}
     6819    017220        MAPT    XR(LOP),TAGMOD          {MAP THE LOP' REGISTER ONTO THE TAG}
     6820    017222        GENI    (EAA 0,N)               {MOVE XRn TO ARA}
     6821    017224        GENI    (ARS 18)                {MOVE AND SMEAR}
     6822    017226        ASSIGN  LOP,TO,AR(A)            {PUT LOP'S RAT INFO INTO AR(A)}
     6823    017230        RTN
     6824    017231
     6825    017231 R_TO_A NULL
     6826    017231        IFID    ROP,BASE,NOMVRP
     6827    017233        IFID    ROP,TRIAD,NOMVRP

PSEUDO CODE ASSEMBLER FOR COBOL85   FILE=Z8HP.:Z8A6TSI       TUE AUG 26 '97 07:51:54.60  PAGE  288
      ESN       ISN       TEXT

     6828    017235        ASSIGN  AR(A),FREE              {FREE THE ARA}
     6829    017237        MAPT    XR(ROP),TAGMOD          {MAP THE ROP'S REGISTER ONTO TAG}
     6830    017241        GENI    (EAA 0,N)               {MOVE XRn TO ARA}
     6831    017243        GENI    (ARS 18)                {MOVE AND SMEAR}
     6832    017245        ASSIGN  ROP,TO,AR(A)            {PUT ROP'S RAT INFO INTO AR(A)}
     6833    017247        RTN
     6834    017250
     6835    017250 L_TOAR NULL
     6836    017250        IFID    LOP,BASE,NOMVLP
     6837    017252        IFID    LOP,TRIAD,NOMVLP
     6838    017254        ASSIGN  AR,FREE                 {GET AN ARITHMETIC REGISTER}
     6839    017256        MAPT    XR(LOP),TAGMOD          {MAP THE LOP'S REGISTER ONTO TAG}
     6840    017260        MAPT    AR,OPMOD                {MAP THE FREED ARITH ONTO OPCODE OF NEXT INST}
     6841    017262        GENI    (EAA 0,N)               {MOVE LOP'S REGISTER TO ARA}
     6842    017264        MAPT    AR,OPMOD
     6843    017266        GENI    (ARS 18)                {MOVE AND SMEAR}
     6844    017270        ASSIGN  LOP,TO,AR               {PUT LOP'S RAT INFO INTO LAST FREED AR}
     6845    017272        RTN
     6846    017273
     6847    017273 R_TOAR NULL
     6848    017273        IFID    ROP,BASE,NOMVRP
     6849    017275        IFID    ROP,TRIAD,NOMVRP
     6850    017277        ASSIGN  AR,FREE                 {FREE AN ARITHMETIC REGISTER}
     6851    017301        MAPT    XR(ROP),TAGMOD          {USE ROP'S REGISTER FOR TAG}
     6852    017303        MAPT    AR,OPMOD                {MAP AR ONTO  NEXT INST'S OPCODE}
     6853    017305        GENI    (EAA 0,N)               {MOVE ROP TO ARA OR ARQ}
     6854    017307        MAPT    AR,OPMOD
     6855    017311        GENI    (ARS 18)                {MOVE AND SMEAR}
     6856    017313        ASSIGN  ROP,TO,AR               {PUT ROP'S RAT INFO INTO LAST FREED AR}
     6857    017315        RTN
     6858    017316
     6859    017316 L_TOXR NULL
     6860    017316        ASSIGN  XR,FREE                 {FREE AN INDEX REGISTER}
     6861    017320        MAPT    XR,OPMOD                {MAP FREE REGISTER ONTO NEXT INST}

PSEUDO CODE ASSEMBLER FOR COBOL85   FILE=Z8HP.:Z8A6TSI       TUE AUG 26 '97 07:51:54.60  PAGE  289
      ESN       ISN       TEXT

     6862    017322        MAPT    AR(LOP),TAGMOD          {MOVE LOP'S REGISTER AS TAG}
     6863    017324        GENI    (EAX0 0,N)              {MOVE LOP'S REGISTER INTO AN XR}
     6864    017326        ASSIGN  LOP,TO,XR               {PUT LOP'S RAT INFO INTO LAST FREED XR}
     6865    017330        RTN
     6866    017331
     6867    017331 R_TOXR NULL
     6868    017331        ASSIGN  XR,FREE                 {FREE INDEX REGISTER}
     6869    017333        MAPT    XR,OPMOD                {MAP INDEX ONTO OPCODE}
     6870    017335        MAPT    AR(ROP),TAGMOD          {MAKE ROP'S REGISTER THE TAG}
     6871    017337        GENI    (EAX0 0,N)              {MOVE ROP'S REGISTER TO XR}
     6872    017341        ASSIGN  ROP,TO,XR               {PUT ROP'S RAT INFO INTO LAST FREED XR}
     6873    017343        RTN
     6874    017344
     6875    017344 NOMVLP NULL
     6876    017344        ASSIGN  XR(LOP),FREE            {FREE LOP'S REGISTER}
     6877    017346        WALK    LOP                     {REBUILD REF_, AND THUS STORAGE STATE}
     6878    017350        RTN
     6879    017351
     6880    017351 NOMVRP NULL
     6881    017351        ASSIGN  XR(ROP),FREE            {FREE ROP'S REGISTER}
     6882    017353        WALK    ROP                     {REBUILD REF_ FOR BASE}
     6883    017355        RTN
     6884    017356        PAGE

PSEUDO CODE ASSEMBLER FOR COBOL85   FILE=Z8HP.:Z8A6TSI       TUE AUG 26 '97 07:51:54.60  PAGE  290
      ESN       ISN       TEXT

     6885    017356 SCOPE  START PEPD
     6886    017356
     6887    017356        CASE                      { Create scope item for OBJ table }
     6888    017360
     6889    017360        QUIT
     6890    017361        PAGE

PSEUDO CODE ASSEMBLER FOR COBOL85   FILE=Z8HP.:Z8A6TSI       TUE AUG 26 '97 07:51:54.60  PAGE  291
      ESN       ISN       TEXT

     6891    017361 STP2   START PEPD
     6892    017361
     6893    017361        WALK    LOP
     6894    017363        GENI    STP2,LOP
     6895    017365        QUIT
     6896    017366        PAGE

PSEUDO CODE ASSEMBLER FOR COBOL85   FILE=Z8HP.:Z8A6TSI       TUE AUG 26 '97 07:51:54.60  PAGE  292
      ESN       ISN       TEXT

     6897    017366 REMEM   START  PEPD
     6898    017366
     6899    017366         ASSIGN  AR, FREE
     6900    017370         MAPT    AR, OPMOD
     6901    017372         GENI    EAA, LOP
     6902    017374         MAPT    AR, OPMOD
     6903    017376         GENI    STA, ROP
     6904    017400         QUIT
     6905    017401         PAGE

PSEUDO CODE ASSEMBLER FOR COBOL85   FILE=Z8HP.:Z8A6TSI       TUE AUG 26 '97 07:51:54.60  PAGE  293
      ESN       ISN       TEXT

     6906    017401 VAL    START PEPD
     6907    017401 VAL_END START PEPD
     6908    017401 END_PROG START PEPD
     6909    017401        QUIT
     6910    017402
     6911    017402 MVJJ   START  PEPD
     6912    017402 MVKK   START  PEPD
     6913    017402        CASE
     6914    017404        QUIT
     6915    017405        PAGE

PSEUDO CODE ASSEMBLER FOR COBOL85   FILE=Z8HP.:Z8A6TSI       TUE AUG 26 '97 07:51:54.60  PAGE  294
      ESN       ISN       TEXT

     6916    017405 PATCH_SPACE  NULL
     6917    017405        QUIT
     6918    017406        QUIT
     6919    017407        QUIT
     6920    017410        QUIT
     6921    017411        QUIT
     6922    017412        QUIT
     6923    017413        QUIT
     6924    017414        QUIT
     6925    017415        QUIT
     6926    017416        QUIT
     6927    017417        QUIT
     6928    017420        QUIT
     6929    017421        QUIT
     6930    017422        QUIT
     6931    017423        QUIT
     6932    017424        QUIT
     6933    017425        QUIT
     6934    017426        QUIT
     6935    017427        QUIT
     6936    017430        QUIT
     6937    017431        QUIT
     6938    017432        QUIT
     6939    017433        QUIT
     6940    017434        QUIT
     6941    017435        QUIT
     6942    017436        QUIT
     6943    017437        QUIT
     6944    017440        QUIT
     6945    017441        QUIT
     6946    017442        QUIT
     6947    017443        QUIT
     6948    017444        QUIT

PSEUDO CODE ASSEMBLER FOR COBOL85   FILE=Z8HP.:Z8A6TSI       TUE AUG 26 '97 07:51:54.60  PAGE  295
      ESN       ISN       TEXT

     6949    017445        QUIT
     6950    017446        QUIT
     6951    017447        QUIT
     6952    017450        QUIT
     6953    017451        QUIT
     6954    017452        QUIT
     6955    017453        QUIT
     6956    017454        QUIT
     6957    017455        QUIT
     6958    017456        QUIT
     6959    017457        QUIT
     6960    017460        QUIT
     6961    017461        QUIT
     6962    017462        QUIT
     6963    017463        QUIT
     6964    017464        QUIT
     6965    017465        QUIT
     6966    017466        QUIT
     6967    017467        PAGE

PSEUDO CODE ASSEMBLER FOR COBOL85   FILE=Z8HP.:Z8A6TSI       TUE AUG 26 '97 07:51:54.60  PAGE  296
      ESN       ISN       TEXT

     6968    017467 END_PROGRAM

PSEUDO CODE ASSEMBLER FOR COBOL85   FILE=Z8HP.:Z8A6TSI       TUE AUG 26 '97 07:51:54.60  PAGE  297
CROSS REFERENCE FOR LABEL DEFINITIONS AND REFERENCES
SYMBOL                        TYPE  DEFINED          REFERENCES

    Types are: ** = PEPD entry, UD = undefined.

AD2D                           **     4042   4042
AD2D00                                4044   4044
AD2DR                          **     4040   4040
AD2I                           **    12050  12050
AD2O                           **     4332   4332
AD2O00                                4334   4334
AD2OR                          **     4330   4330
AD3D                           **     4071   4071
AD3D00                                4073   4073
AD3DR                          **     4067   4067
AD3O                           **     4360   4360
AD3O00                                4362   4362
AD3OR                          **     4356   4356
ADD                            **     5030   5030
ADEP                           **    16527  16527
ADI                            **       10     10
ADO                            **     5107   5107
ADQ                            **    11250  11250
ADR                            **     5516   5516
ALTER                          **     3322   3322
ANDI                           **     2067   2067
AQDEP                          **    16734  16734
ARDEPA                         **    16716  16716
ARDEPQ                         **    16725  16725
ASC_BIN                        **     1044   1044
BASE                           **     2262   2262
BCT001                               16674  16674  16702
BDEP                           **    16532  16532
BIN_ASC                        **     1065   1065
CCOSU                          **     2372   2372

PSEUDO CODE ASSEMBLER FOR COBOL85   FILE=Z8HP.:Z8A6TSI       TUE AUG 26 '97 07:51:54.60  PAGE  298
CROSS REFERENCE FOR LABEL DEFINITIONS AND REFERENCES
SYMBOL                        TYPE  DEFINED          REFERENCES
CDEP                           **    16535  16535
CFILL                          **    13236  13236
CFILLR                         **    13261  13261
CHECK_FOR_UNSIGNED_ASCII              5300   5111   5140   5167   5220   5251   5300
CHKLEN                               13304   3171  13304  15403
CMGP                           **    11635  11635
CMGQ                           **    11714  11714
CMGR                           **    11656  11656
CMPA                           **     6677   6677
CMPAA                          **    11634  11634
CMPAO                          **     6722   6722
CMPAS                          **    11067  11067
CMPD                           **     6633   6633
CMPI                           **     3615   3615
CMPO                           **     6654   6654
CMPQ                           **    11072  11072
CMPR                           **    11161  11161
CS_NS                                 4610   4336   4364   4412   4440   4466   4514   4542   4570
                                             4610
CV49                           **    12027  12027
CVAA                           **     6526   6526
CVDD                           **     6505   6505
CVDI                           **    13445  13445
CVDSF                          **    13413  13413
CVHI                           **    14176  14176
CVID4                          **    13360  13360
CVID9                          **    13360  13360
CVII                           **    13341  13341
CVIQ                           **    15772  15772
CVIR                           **    14510  14510
CVJI                           **    13533  13533
CVKI                           **    13734  13734
CVQI                           **    14430  14430
CVQR                           **    14600  14600

PSEUDO CODE ASSEMBLER FOR COBOL85   FILE=Z8HP.:Z8A6TSI       TUE AUG 26 '97 07:51:54.60  PAGE  299
CROSS REFERENCE FOR LABEL DEFINITIONS AND REFERENCES
SYMBOL                        TYPE  DEFINED          REFERENCES
CVRI                           **    14351  14351
CVRQ                           **    16063  16063
CV_IUN                               14134  13660  14057  14134
D96                            **     4625   4625
DAN                            **     4625   4625
DEFLB                          **    13334  13334
DESC                           **     4625   4625
DNA                            **     4625   4625
DO1                            **    13020  13020
DO2                            **    13025  13025
DO3                            **    13020  13020
DO4                            **    13020  13020
DO5                            **    13020  13020
DOEND                          **    13114  13114
DV2D                           **     4254   4254
DV2D00                                4256   4256
DV2DR                          **     4252   4252
DV2I                           **    12250  12250
DV2IR                          **    12250  12250
DV2O                           **     4536   4536
DV2O00                                4540   4540
DV2OR                          **     4534   4534
DV3D                           **     4303   4303
DV3D00                                4305   4305
DV3DR                          **     4301   4301
DV3O                           **     4564   4564
DV3O00                                4566   4566
DV3OR                          **     4562   4562
DV4I                           **     1451   1451
DVD                            **     5055   5055
DVDR                           **     5064   5064
DVI                            **      532    532
DVI2                           **     4736   4635   4736
DVO                            **     5216   5216

PSEUDO CODE ASSEMBLER FOR COBOL85   FILE=Z8HP.:Z8A6TSI       TUE AUG 26 '97 07:51:54.60  PAGE  300
CROSS REFERENCE FOR LABEL DEFINITIONS AND REFERENCES
SYMBOL                        TYPE  DEFINED          REFERENCES
DVOR                           **     5247   5247
DVQ                            **    11502  11502
DVR                            **     5764   5764
EADEP                          **    17123  17123
EAQDEP                         **    17132  17132
EDEP                           **     2243   2243
END                            **    16133  16133
END_PROG                       **    17401  17401
EVAL                           **        3      3
EVALP                          **     2402   2402
EVALU                          **    16144  16144
EXDIO                          **     6122   6122
FDEP                           **     2257   2257
FISS                           **     4625   4625
G2DESC_CONV_LOP                       5353   5130   5157   5206   5237   5270   5353
G2DESC_CONV_ROP                       5364   5135   5164   5364
G3DESC                                5072   5036   5045   5054   5063   5072
G3DESC_OVP                            5375   5123   5152   5201   5215   5232   5246   5263   5277
                                             5375
GO                             **     3335   3335
GO_SUB                         **    13141  13141
IDEP                           **    16544  16544
INCRV                          **    13003  13003
INDDEP                         **    16707  16707
INDEX                          **     2405   2405
INITV                          **    12726  12726
JDEP                           **     3126   3126
KDEP                           **     3141   3141
LDEP                           **    16672  16672
LINOI                          **    16130  16130
L_TOAR                               17250    125    127    313    465    467    651   1016   1222
                                             1224   1601   2020   2022   2174   2176   3725   4711
                                             5005  14567  16051  16252  16257  16261  16266  16416
                                            16423  16425  16432  17250

PSEUDO CODE ASSEMBLER FOR COBOL85   FILE=Z8HP.:Z8A6TSI       TUE AUG 26 '97 07:51:54.60  PAGE  301
CROSS REFERENCE FOR LABEL DEFINITIONS AND REFERENCES
SYMBOL                        TYPE  DEFINED          REFERENCES
L_TOXR                               17316   7063   7175  17316
L_TO_A                               17212    123    307    463    647   1014   1220   1577   1676
                                             2016   2172   3721  12010  17212
L_TO_Q                               17154    121    305    311    461    645    653   1012   1020
                                             1216   1575   1603   2014   2170   3717   3723  17154
MDEP                           **    17141  17141
MFILL                          **    13213  13213
MIND                           **     1313   1313
MINI                           **     1106   1106
MINO                           **     1372   1372
MODI                           **      677    677
MP2D                           **     4176   4176
MP2D00                                4200   4200
MP2DR                          **     4174   4174
MP2I                           **    12250  12250
MP2O                           **     4462   4462
MP2O00                                4464   4464
MP2OR                          **     4460   4460
MP3D                           **     4225   4225
MP3D00                                4227   4227
MP3DR                          **     4223   4223
MP3O                           **     4510   4510
MP3O00                                4512   4512
MP3OR                          **     4506   4506
MPD                            **     5046   5046
MPD10                          **     4625   4625
MPI                            **      366    366
MPI2                           **     4636   4634   4636
MPO                            **     5136   5136
MPQ                            **    11420  11420
MPR                            **     5676   5676
MVANO                          **    12343  12343
MVDD                           **     3157   3157
MVDD1                                 3161   3156   3161

PSEUDO CODE ASSEMBLER FOR COBOL85   FILE=Z8HP.:Z8A6TSI       TUE AUG 26 '97 07:51:54.60  PAGE  302
CROSS REFERENCE FOR LABEL DEFINITIONS AND REFERENCES
SYMBOL                        TYPE  DEFINED          REFERENCES
MVDDR                          **     3154   3154
MVDI                           **    12250  12250
MVDO                           **    15373  15373
MVDOR                          **    15373  15373
MVEAN                          **     3260   3260
MVEDD                          **     3301   3301
MVFIL                          **    15745  15745
MVID                           **    12267  12267
MVIH                           **     6317   6317
MVII                           **     2267   2267
MVIJ                           **    14626  14626
MVIJA                                14763  14757  14763
MVIJLP                               14775  14775  15001
MVIJQ                                14767  14760  14767  15060  15073
MVIJS                                15061  14762  15061
MVIJX                                15057  14761  15057
MVIK                           **    15074  15074
MVIKA                                15231  15137  15231
MVIKLP                               15243  15243  15247
MVIKQ                                15235  15140  15235  15274  15307
MVIKS                                15275  15142  15275
MVIKX                                15273  15141  15273
MVJI                           **    13466  13466
MVJJ                           **    17402  17402
MVJ_0                                15016  15011  15016
MVJ_1                                15031  15012  15031  15057  15057  15273  15273  15273  15273
MVJ_2                                15052  15013  15052
MVJ_3                                15031  15014  15057
MVJ_U                                15031  15015  15057
MVKI                           **    13667  13667
MVKK                           **    17402  17402
MVK_0                                15264  15257  15264
MVK_1                                15031  15260  15273
MVK_2                                15031  15261  15273

PSEUDO CODE ASSEMBLER FOR COBOL85   FILE=Z8HP.:Z8A6TSI       TUE AUG 26 '97 07:51:54.60  PAGE  303
CROSS REFERENCE FOR LABEL DEFINITIONS AND REFERENCES
SYMBOL                        TYPE  DEFINED          REFERENCES
MVK_3                                15031  15262  15273
MVK_U                                15031  15263  15273
MVOD                           **    15310  15310
MVODR                          **    15310  15310
MVOO                           **     3220   3220
MVOOR                          **     3216   3216
MVQQ                           **     5453   5453
MVRL                           **    12322  12322
MVRR                           **     5410   5410
NOMVLP                               17344  17154  17156  17212  17214  17250  17252  17344
NOMVRP                               17351  17173  17175  17231  17233  17273  17275  17351
NSYNC                                14106  13633  13642  13651  14032  14041  14050  14106
OCCHK                          **    16145  16145
OFF                            **     4625   4625
OR2I                           **    12132  12132
ORI                            **     1713   1713
PATCH_SPACE                          17405  17405
PEND                           **    16473  16473
PFORM                          **    13140  13140
PINC                           **    15660  15660
PRDEP0                         **    17033  17033
PRDEP1                         **    17042  17042
PRDEP2                         **    17051  17051
PRDEP3                         **    17060  17060
PRDEP4                         **    17067  17067
PRDEP5                         **    17076  17076
PRDEP6                         **    17105  17105
PRDEP7                         **    17114  17114
PREOFF                         **    16511  16511
PRESET                         **    16464  16464
PTR_SET                        **    16502  16502
P_P_PRESET                     **    16520  16520
REFMOD                         **     3115   3115
REMEM                          **    17366  17366

PSEUDO CODE ASSEMBLER FOR COBOL85   FILE=Z8HP.:Z8A6TSI       TUE AUG 26 '97 07:51:54.60  PAGE  304
CROSS REFERENCE FOR LABEL DEFINITIONS AND REFERENCES
SYMBOL                        TYPE  DEFINED          REFERENCES
RNDD                           **     6547   6547
RNDO                           **     6572   6572
RNDQ                           **     6624   6624
RNDR                           **     6615   6615
R_TOAR                               17273    147    341    511   1260   2042   2216   2344   3751
                                            12111  12156  12233  17273
R_TOXR                               17331  17331
R_TO_A                               17231    110    274    450    634   1001   1177   1564   2003
                                             2157   3706  16235  16376  17231
R_TO_Q                               17173     61    245    427    603    660    750   1025   1146
                                             1527   1610   1760   2134   3672  15057  15273  16215
                                            16353  17173
SB2D                           **     4120   4120
SB2D00                                4122   4122
SB2DR                          **     4116   4116
SB2I                           **    12175  12175
SB2O                           **     4406   4406
SB2O00                                4410   4410
SB2OR                          **     4404   4404
SB3D                           **     4147   4147
SB3D00                                4151   4151
SB3DR                          **     4145   4145
SB3O                           **     4434   4434
SB3O00                                4436   4436
SB3OR                          **     4432   4432
SBCHK                          **    16313  16313
SBD                            **     5037   5037
SBI                            **      174    174
SBO                            **     5165   5165
SBQ                            **    11332  11332
SBR                            **     5604   5604
SCOPE                          **    17356  17356
SDEP                           **     2254   2254
SEARCH                         **     3010   3010

PSEUDO CODE ASSEMBLER FOR COBOL85   FILE=Z8HP.:Z8A6TSI       TUE AUG 26 '97 07:51:54.60  PAGE  305
CROSS REFERENCE FOR LABEL DEFINITIONS AND REFERENCES
SYMBOL                        TYPE  DEFINED          REFERENCES
SHFT1                                14173  13654  14173
SHFT1_                               14171  13627  13636  13645  14171
SHFT2                                14167  14167
SHFT2_                               14165  14165
SHFT3                                14163  14035  14163
SHFT3_                               14161  14161
SHFT4                                14157  14026  14044  14053  14157
SHIFT_L                        **     4634   4634
SHIFT_R                        **     4635   4635
SIZ                            **     3115   3115
SSOP                           **     3102   3102
STP2                           **    17361  17361
SUBCHK_SETUP                         16451  16355  16400  16451
SUBSCRIPT                             3102   3102
SUB_END                        **    13170  13170
SUB_ENTRY                      **    13153  13153
SUB_PREP                       **    13150  13150
SYNC                                 14066  13624  14025  14066
TRIAD                          **        0      0
TRN                            **     6633   6633
USI                            **     1635   1635
USQ                            **    11600  11600
USR                            **     6066   6066
VAL                            **    17401  17401
VAL_END                        **    17401  17401
WHEN                           **    16144  16144
XRDEP0                         **    16743  16743
XRDEP1                         **    16752  16752
XRDEP2                         **    16761  16761
XRDEP3                         **    16770  16770
XRDEP4                         **    16777  16777
XRDEP5                         **    17006  17006
XRDEP6                         **    17015  17015
XRDEP7                         **    17024  17024

PSEUDO CODE ASSEMBLER FOR COBOL85   FILE=Z8HP.:Z8A6TSI       TUE AUG 26 '97 07:51:54.60  PAGE  306
CROSS REFERENCE FOR LABEL DEFINITIONS AND REFERENCES
SYMBOL                        TYPE  DEFINED          REFERENCES

No errors were found.

PL6.E3A0      #001=Z8HP$PC_PEPD_INIT File=*OU                                    TUE 08/26/97 07:54 Page:1    

PL6.E3A0      #001=Z8HP$PC_PEPD_INIT File=*OU                                    TUE 08/26/97 07:54 Page:2    
--  Include file information  --

   *LABEL_DEFS  is referenced.
   Z8A_LIBRARY.:Z8A6TOU  cannot be made into a system file and is referenced.
   Z8H_DIRECT.:Z8A6TOU  is referenced.
   Z8H_TEMP.:Z8A6TOU  is referenced.
   Z8H_RAT.:Z8A6TOU  cannot be made into a system file and is referenced.
   Z8H_DEP.:Z8A6TOU  is referenced.
   Z8H_PCOM.:Z8A6TOU  cannot be made into a system file and is referenced.
   Z8A_TYPES.:Z8A6TOU  is referenced.
   Z8A_COMCOM.:Z8A6TOU  cannot be made into a system file and is referenced.
   Z8A_ETT.:Z8A6TOU  cannot be made into a system file and is referenced.
   Z8A_ILL.:Z8A6TOU  cannot be made into a system file and is referenced.
   X8A_COM_MACS.:X8A6TOU  is referenced.
   Z8A_NAMES.:Z8A6TOU  is referenced.
   Z8A_SUPP_MAC.:Z8A6TOU  is referenced.
   Z8A_DEFC.:Z8A6TOU  cannot be made into a system file and is referenced.
   B$JIT_C.:E04TOU  was found in the system file and is never referenced.
   CP_6_C.:E04TOU  was found in the system file and is never referenced.
      No diagnostics issued in procedure Z8HP$PC_PEPD_INIT.

   Procedure Z8HP$PC_PEPD_INIT requires 673 words for executable code.
   Procedure Z8HP$PC_PEPD_INIT requires 68 words of local(AUTO) storage.

    No errors detected in file *OU    .

