VERSION E05
       1.000 - FEPLINK ;
       2.000 -        G_COPYRIGHT.:E05TOU  ,;
       3.000 -        X6A$CSEQU.:E05TOU  ,;
       4.000 -        QAT$TALLYHO.:E05TOU  ,;
       5.000 -        QIE$ERROR_MESS.:E05TOU  ,;
       6.000 -        QBA$ABORT.:E05TOU  ,;
       7.000 -        QBA$ACCEPT.:E05TOU  ,;
       8.000 -        QBA$ACTIVATE.:E05TOU  ,;
       9.000 -        QBA$APPLY.:E05TOU  ,;
      10.000 -        QBC$CALL.:E05TOU  ,;
      11.000 -        QBC$CLEAR.:E05TOU  ,;
      12.000 -        QBC$CLOSE.:E05TOU  ,;
      13.000 -        QBC$CONVERSIONS.:E05TOU  ,;
      14.000 -        QBD$DISPLAY.:E05TOU  ,;
      15.000 -        QBE$ENABLE.:E05TOU  ,;
      16.000 -        QBG$GOTOS.:E05TOU  ,;
      17.000 -        QBI$IFS.:E05TOU  ,;
      18.000 -        QBI$IF_INDICATOR.:E05TOU  ,;
      19.000 -        QBI$INSPECT.:E05TOU  ,;
      20.000 -        QBJ$JUMPS.:E05TOU  ,;
      21.000 -        QBL$LOAD.:E05TOU  ,;
      22.000 -        QBM$MOVES.:E05TOU  ,;
      23.000 -        QBO$OPEN.:E05TOU  ,;
      24.000 -        QBP$PERFORMS.:E05TOU  ,;
      25.000 -        QBR$READ_FORM.:E05TOU  ,;
      26.000 -        QBR$READ_TRAN.:E05TOU  ,;
      27.000 -        QBS$STOP_PAUSE.:E05TOU  ,;
      28.000 -        QBS$STOP_RUN.:E05TOU  ,;
      29.000 -        QBS$SUBSCRIPT.:E05TOU  ,;
      30.000 -        QBV$VERI_PRES.:E05TOU  ,;
      31.000 -        QBW$WRITE_FORM.:E05TOU  ,;
      32.000 -        QBW$WRITE_TRAN.:E05TOU  ,;
      33.000 -        QBX$ARITHMETICS.:E05TOU  ,;
      34.000 -        QCA$ALL_LITERALS.:E05TOU  ,;
      35.000 -        QCC$ACM.:E05TOU  ,;
      36.000 -        QCC$ALR.:E05TOU  ,;
      37.000 -        QCC$CALL.:E05TOU  ,;
      38.000 -        QCC$CBD.:E05TOU  ,;
      39.000 -        QCC$CDB.:E05TOU  ,;
      40.000 -        QCC$DAD.:E05TOU  ,;
      41.000 -        QCC$DCM.:E05TOU  ,;
      42.000 -        QCC$DDV.:E05TOU  ,;
      43.000 -        QCC$DLS.:E05TOU  ,;
      44.000 -        QCC$DMC.:E05TOU  ,;
      45.000 -        QCC$DME.:E05TOU  ,;
      46.000 -        QCC$DML.:E05TOU  ,;
      47.000 -        QCC$DRS.:E05TOU  ,;
      48.000 -        QCC$DSB.:E05TOU  ,;
      49.000 -        QCC$MAT.:E05TOU  ,;
      50.000 -        QCC$SRCH.:E05TOU  ,;
      51.000 -        QCC$VRFY.:E05TOU  ,;
      52.000 -        QCD$DE_EDIT.:E05TOU  ,;
      53.000 -        QCE$ERROR.:E05TOU  ,;
      54.000 -        QCF$FIND_CURRENTS.:E05TOU  ,;
      55.000 -        QCG$GET_FIELD.:E05TOU  ,;
      56.000 -        QCI$IFS.:E05TOU  ,;
      57.000 -        QCI$IO_READ.:E05TOU  ,;
      58.000 -        QCI$IO_WRITE.:E05TOU  ,;
      59.000 -        QCM$MESS.:E05TOU  ,;
      60.000 -        QCR$READ.:E05TOU  ,;
      61.000 -        QCS$SETUP.:E05TOU  ,;
      62.000 -        QCU$UNSIGN.:E05TOU  ,;
      63.000 -        QCU$UTILITIES.:E05TOU  ,;
      64.000 -        QCU$USE.:E05TOU  ,;
      65.000 -        QCW$WRITE.:E05TOU  ,;
      66.000 -        QI_DATA_D.:E05TOU  , ;
      67.000 -        QGB$BUFFER_VDO.:E05TOU   ;
      68.000 - OVER :SHARED_FPL.:E05TGNS(MAP(NAME,VALUE,UDEF),;
      69.000 -                SLIB,NOSHARELIB,SL=15,IPATCH=300,DPATCH=76, ;
      70.000 -                VECTOR(RF=:SHARED_FPL.:E04GN , ;
      71.000 -                DATA=443, ;
      72.000 -                REMOVE_ENTDEF),VERSION='E05')
        * * ALLOCATION SUMMARY * *
 PROTECTION          LOCATION       PAGES
 DATA                   10000           2
 PROCEDURE              E0000          9A
  * No linking errors.
  * Total program size =   39K.

 ************* TRANSFER VECTOR **************
    E0008 QAT$TALLYHO                     ->  E0412 QAT$TALLYHO_
    E000B X6A@                            ->  E021D X6A@_
    E000E X6A_AAALT                       ->  E02B3 X6A_AAALT_
    E0011 X6A_AALT                        ->  E00B3 X6A_AALT_
    E0014 X6A_AARET                       ->  E02A2 X6A_AARET_
    E0017 X6A_AAUNWIND                    ->  E02C0 X6A_AAUNWIND_
    E001A X6A_AAUTO                       ->  E0277 X6A_AAUTO_
    E001D X6A_ARET                        ->  E00AC X6A_ARET_
    E0020 X6A_ASALT                       ->  E02BC X6A_ASALT_
    E0023 X6A_ASRET                       ->  E02AB X6A_ASRET_
    E0026 X6A_ASTATIC                     ->  E0297 X6A_ASTATIC_
    E0029 X6A_ASUNWIND                    ->  E02C0 X6A_ASUNWIND_
    E002C X6A_AUNWIND                     ->  E02C0 X6A_AUNWIND_
    E002F X6A_AUTO_0                      ->  E00BD X6A_AUTO_0_
    E0032 X6A_AUTO_1                      ->  E00D2 X6A_AUTO_1_
    E0035 X6A_AUTO_2                      ->  E00F4 X6A_AUTO_2_
    E0038 X6A_AUTO_3                      ->  E011D X6A_AUTO_3_
    E003B X6A_AUTO_N                      ->  E014D X6A_AUTO_N_
    E003E X6A_FARET                       ->  E00AC X6A_FARET_
    E0041 X6A_INTRET                      ->  E02CA X6A_INTRET_
    E0044 X6A_MAALT                       ->  E02AF X6A_MAALT_
    E0047 X6A_MARET                       ->  E029E X6A_MARET_
    E004A X6A_MAUNWIND                    ->  E02C0 X6A_MAUNWIND_
    E004D X6A_MAUTO                       ->  E021D X6A_MAUTO_
    E0050 X6A_MERCS                       ->  E02E0 X6A_MERCS_
    E0053 X6A_MSALT                       ->  E02AF X6A_MSALT_
    E0056 X6A_MSRET                       ->  E029E X6A_MSRET_
    E0059 X6A_MSTATIC                     ->  E0262 X6A_MSTATIC_
    E005C X6A_MSUNWIND                    ->  E02C0 X6A_MSUNWIND_
    E005F X6A_STATIC_0                    ->  E01AF X6A_STATIC_0_
    E0062 X6A_STATIC_1                    ->  E01B5 X6A_STATIC_1_
    E0065 X6A_STATIC_2                    ->  E01C7 X6A_STATIC_2_
    E0068 X6A_STATIC_3                    ->  E01E1 X6A_STATIC_3_
    E006B X6A_STATIC_N                    ->  E0202 X6A_STATIC_N_
    E006E X6A_SUNWIND                     ->  E02C0 X6A_SUNWIND_
    E0071 X6A_TRTN                        ->  E02DD X6A_TRTN_
    E0074 X6B_BCM                         ->  E036D X6B_BCM_
    E0077 X6B_BLR                         ->  E036B X6B_BLR_
    E007A X6C_ACM                         ->  E032B X6C_ACM_
    E007D X6C_ACMZ                        ->  E0329 X6C_ACMZ_
    E0080 X6C_ALR                         ->  E0362 X6C_ALR_
    E0083 X6C_ALRZ                        ->  E0348 X6C_ALRZ_
    E0086 X6C_MAT                         ->  E038E X6C_MAT_
    E0089 X6C_SRCH                        ->  E03AA X6C_SRCH_
    E008C X6D_MID                         ->  E03F1 X6D_MID_

 *******ENTRY DEFINITIONS NOT IN TRANSFER VECTOR***********
     G_COPYRIGHT                             G_PATCHI
     QAT$TALLYHO_USE                         QBA$ABORT
     QBA$ACCEPT                              QBA$ACTIVATE
     QBA$ALL_LITERAL_MOVE                    QBA$APPLY
     QBA$DEACTIVATE                          QBA$DEACTIVATE_FORM
     QBA$DEACTIVATE_FRAME                    QBC$CALL
     QBC$CLEAR                               QBC$CLOSE
     QBC$CNVBBX                              QBC$CNVBN
     QBC$CNVBNX                              QBC$CNVBPX
     QBC$CNVNBT                              QBC$CNVPBT
     QBC$CNVPN                               QBC$CONVERSIONS
     QBD$DISPLAY                             QBE$DISABLE
     QBE$ENABLE                              QBG$GOTO
     QBG$GOTODP                              QBG$GOTOS
     QBI$IFCLS                               QBI$IFCNDA
     QBI$IFCNDN                              QBI$IFRELA
     QBI$IFRELG                              QBI$IFRELN
     QBI$IFS                                 QBI$IF_INDICATOR
     QBI$INSPECT                             QBJ$JAZ
     QBJ$JND                                 QBJ$JUMPS
     QBL$LOAD                                QBM$MOVA
     QBM$MOVAE                               QBM$MOVAE_VP
     QBM$MOVAJ                               QBM$MOVAJ_VP
     QBM$MOVA_VP                             QBM$MOVB
     QBM$MOVBA                               QBM$MOVB_VP
     QBM$MOVDE                               QBM$MOVDE_VP
     QBM$MOVES                               QBM$MOVG
     QBM$MOVN                                QBM$MOVNA
     QBM$MOVNE                               QBM$MOVNEA
     QBM$MOVNE_VP                            QBM$MOVN_VP
     QBM$MOVP                                QBM$MOVPA
     QBM$MOVP_VP                             QBO$OPEN
     QBP$PERFM                               QBP$PERFMT
     QBP$PERFORMS                            QBR$READ_FORM
     QBR$READ_TRAN                           QBS$STOP_PAUSE
     QBS$STOP_RUN                            QBS$SUBSCRIPT
     QBV$PRESENT                             QBV$VERIFY
     QBV$VERI_PRES                           QBW$WRITE_FORM
     QBW$WRITE_TRAN                          QBX$ADD
     QBX$ADDX                                QBX$ARITHMETICS
     QBX$DIV                                 QBX$DIVX
     QBX$MULT                                QBX$MULTX
     QBX$ROUND                               QBX$SUB
     QBX$SUBX                                QCA$ALL_LITERAL_IF
     QCA$ALL_LITERAL_IFS                     QCA$ALL_LITERAL_MOVES
     QCA$ALL_LITERAL_MOVE_A                  QCA$ALL_LITERAL_MOVE_AE
     QCA$ALL_LITERAL_MOVE_AJ                 QCC$ACM
     QCC$ALR                                 QCC$CALL
     QCC$CBD                                 QCC$CDB
     QCC$DAD                                 QCC$DCM
     QCC$DDV                                 QCC$DLS
     QCC$DMC                                 QCC$DME
     QCC$DML                                 QCC$DRS
     QCC$DSB                                 QCC$MAT
     QCC$SRCH                                QCC$VRFY
     QCD$DE_EDIT                             QCE$ERROR
     QCE$ERRORS                              QCE$ERRORS_ASYNC
     QCE$ERROR_DBCONTROL                     QCE$ERROR_INT
     QCE$ERROR_INTERNAL                      QCE$ERROR_M$INTERNAL
     QCE$ERROR_MESSAGE                       QCE$ERROR_TRAP
     QCE$EXPERIENCE_M$XBREAK                 QCF$FIND_CURRENTS
     QCG$GET_FIELD                           QCG$GET_FIELD_ILLEGAL
     QCI$IFA                                 QCI$IFG
     QCI$IFN                                 QCI$IFS
     QCI$IO_READ                             QCI$IO_WRITE
     QCM$MESS                                QCM$MESS_ERASE
     QCM$MESS_PAUSE                          QCR$READ
     QCS$SETUP                               QCS$SETUP_AUX
     QCS$SETUP_SOURCE                        QCS$SETUP_TARGET
     QCU$RESTORE_PAGEHALT                    QCU$UNSIGN
     QCU$UNSIGN_AUX                          QCU$UNSIGN_SOURCE
     QCU$UNSIGN_TARGET                       QCU$UPDATE_SCREEN
     QCU$USE                                 QCU$USE_CALL
     QCU$USE_INVALID_IO                      QCU$USE_INVALID_VERIFY
     QCU$USE_IO                              QCU$USE_VERIFY
     QCU$UTILITIES                           QCW$WRITE
     QGB$BUFFER_VDO                          QGB$CLOSE
     QGB$DCLFLD                              QGB$DEVICE
     QGB$ERASE                               QGB$FLUSH
     QGB$MDFFLD                              QGB$OPEN
     QGB$READ                                QGB$RLSFLD
     QGB$SLCFLD                              QGB$WRITE
     QIE$ERROR_MESS                          QI_DATA_D
     _TV_EN                                  _TV_ST
**********************            CP6 FEP LINK MAP  VERSION = E00              **********************
********************** RF    = :SHARED_FPL                     ACN  = :E05TGNS **********************
********************** SEV   =     0                           SIZE =    39 K  **********************
********************** START =     0                           BIAS = 10000    **********************
********************** UTS   = 07/30/97  14:03:08.64  WED                      **********************
SHARED LIBRARY
                               
<HEX_ADDRESS><CON_DEF><SOURCE><USED><MULT_DEF><DEFINITION_NAME>
    <CON_DEF>   <USED>    <MULT_DEF>                      <SOURCE>
YES:    =       <BLANK>       +          OBJECT FILE      <BLANK>
NO : <BLANK>      *        <BLANK>       SHARED LIB.         S
                                         ALT. SHARED LIB.    A
                                         PRIVATE LIB.        P
                                         LINKER SUPPLIED     L
                                         RUN FILE            R
                                         REMOVED             -
*********** PROTECTION TYPES ***********
            DATA   PROCEDURE   READ ONLY
            ----   ---------   ---------
HIGH:      101BC       E996A
LOW :      10000       E0000
SIZE:        1BC        996B
******** CONTROL SECTIONS SORTED BY VALUE ********
   10000 DATA                                         1 (.1)
   10002 DATA      QCE$ERRORS                       125 (.7D)
   10080 DATA      QI_DATA_D                        221 (.DD)
   1015E DATA      QGB$BUFFER_VDO                    13 (.D)
   1016C DATA      G_PATCHD                          79 (.4F)
   101BC DATA      <Unused_data>                      0 (.0)
   E0000 RODATA    <FEPLINK supplied data items>      8 (.8)
   E0008 PROC      <Transfer vector>                138 (.8A)
   E0092 RODATA    G_COPYRIGHT                       26 (.1A)
   E00AC PROC      G_COPYRIGHT                        0 (.0)
   E00AC PROC      X6A@                             860 (.35C)
   E0408 RODATA    QAT$TALLYHO                        9 (.9)
   E0412 PROC      QAT$TALLYHO                     1395 (.573)
   E0986 RODATA    QAT$TALLYHO                       21 (.15)
   E099C PROC      QIE$ERROR_MESS                     0 (.0)
   E099C PROC      QBA$ABORT                        100 (.64)
   E0A00 RODATA    QBA$ABORT                          3 (.3)
   E0A04 RODATA    QBA$ACCEPT                        16 (.10)
   E0A14 PROC      QBA$ACCEPT                      1341 (.53D)
   E0F52 RODATA    QBA$ACCEPT                        16 (.10)
   E0F62 PROC      QBA$ACTIVATE                    2250 (.8CA)
   E182C RODATA    QBA$ACTIVATE                      14 (.E)
   E183A PROC      QBA$DEACTIVATE_FORM              511 (.1FF)
   E1A3A RODATA    QBA$DEACTIVATE_FORM                7 (.7)
   E1A42 RODATA    QBA$APPLY                          1 (.1)
   E1A44 PROC      QBA$APPLY                        525 (.20D)
   E1C52 RODATA    QBA$APPLY                          8 (.8)
   E1C5A PROC      QBC$CALL                         153 (.99)
   E1CF4 RODATA    QBC$CALL                           5 (.5)
   E1CFA RODATA    QBC$CLEAR                          1 (.1)
   E1CFC PROC      QBC$CLEAR                        563 (.233)
   E1F30 RODATA    QBC$CLEAR                          8 (.8)
   E1F38 RODATA    QBC$CLOSE                          1 (.1)
   E1F3A PROC      QBC$CLOSE                        393 (.189)
   E20C4 RODATA    QBC$CLOSE                          9 (.9)
   E20CE PROC      QBC$CONVERSIONS                  454 (.1C6)
   E2294 RODATA    QBC$CONVERSIONS                    5 (.5)
   E229A RODATA    QBD$DISPLAY                        2 (.2)
   E229C PROC      QBD$DISPLAY                      375 (.177)
   E2414 RODATA    QBD$DISPLAY                        6 (.6)
   E241A PROC      QBE$ENABLE                       373 (.175)
   E2590 RODATA    QBE$ENABLE                         5 (.5)
   E2596 PROC      QBG$GOTOS                        209 (.D1)
   E2668 RODATA    QBG$GOTOS                          8 (.8)
   E2670 PROC      QBI$IFS                          796 (.31C)
   E298C PROC      QBI$IF_INDICATOR                 292 (.124)
   E2AB0 RODATA    QBI$IF_INDICATOR                   5 (.5)
   E2AB6 PROC      QBI$INSPECT                     1078 (.436)
   E2EEC RODATA    QBI$INSPECT                        2 (.2)
   E2EEE PROC      QBJ$JUMPS                         81 (.51)
   E2F40 RODATA    QBL$LOAD                          10 (.A)
   E2F4A PROC      QBL$LOAD                        1113 (.459)
   E33A4 RODATA    QBL$LOAD                          15 (.F)
   E33B4 PROC      QBM$MOVES                       1548 (.60C)
   E39C0 RODATA    QBM$MOVES                          9 (.9)
   E39CA RODATA    QBO$OPEN                           4 (.4)
   E39CE PROC      QBO$OPEN                         400 (.190)
   E3B5E RODATA    QBO$OPEN                           9 (.9)
   E3B68 PROC      QBP$PERFORMS                     175 (.AF)
   E3C18 RODATA    QBR$READ_FORM                      1 (.1)
   E3C1A PROC      QBR$READ_FORM                    364 (.16C)
   E3D86 RODATA    QBR$READ_FORM                      8 (.8)
   E3D8E RODATA    QBR$READ_TRAN                      7 (.7)
   E3D96 PROC      QBR$READ_TRAN                    644 (.284)
   E401A RODATA    QBR$READ_TRAN                      8 (.8)
   E4022 RODATA    QBS$STOP_PAUSE                     1 (.1)
   E4024 PROC      QBS$STOP_PAUSE                   442 (.1BA)
   E41DE RODATA    QBS$STOP_PAUSE                    14 (.E)
   E41EC PROC      QBS$STOP_RUN                      18 (.12)
   E41FE PROC      QBS$SUBSCRIPT                    925 (.39D)
   E459C RODATA    QBS$SUBSCRIPT                     11 (.B)
   E45A8 RODATA    QBV$VERI_PRES                     38 (.26)
   E45CE PROC      QBV$VERI_PRES                   2406 (.966)
   E4F34 RODATA    QBV$VERI_PRES                     11 (.B)
   E4F40 RODATA    QBW$WRITE_FORM                     1 (.1)
   E4F42 PROC      QBW$WRITE_FORM                   318 (.13E)
   E5080 RODATA    QBW$WRITE_FORM                     6 (.6)
   E5086 RODATA    QBW$WRITE_TRAN                     1 (.1)
   E5088 PROC      QBW$WRITE_TRAN                   513 (.201)
   E528A RODATA    QBW$WRITE_TRAN                     8 (.8)
   E5292 PROC      QBX$ARITHMETICS                  941 (.3AD)
   E5640 RODATA    QBX$ARITHMETICS                    5 (.5)
   E5646 PROC      QCA$ALL_LITERAL_IFS              146 (.92)
   E56D8 RODATA    QCA$ALL_LITERAL_IFS                2 (.2)
   E56DA PROC      QCA$ALL_LITERAL_MOVES            593 (.251)
   E592C RODATA    QCA$ALL_LITERAL_MOVES              2 (.2)
   E592E PROC                                        71 (.47)
   E5976 PROC                                        54 (.36)
   E59AC PROC                                        19 (.13)
   E59C0 PROC                                        90 (.5A)
   E5A1A PROC                                        91 (.5B)
   E5A76 PROC                                        94 (.5E)
   E5AD4 PROC                                        69 (.45)
   E5B1A PROC                                        34 (.22)
   E5B3C PROC                                        18 (.12)
   E5B4E PROC                                        92 (.5C)
   E5BAA PROC                                        81 (.51)
   E5BFC PROC                                        86 (.56)
   E5C52 PROC                                        19 (.13)
   E5C66 PROC                                        94 (.5E)
   E5CC4 PROC                                        55 (.37)
   E5CFC PROC                                        29 (.1D)
   E5D1A PROC                                        29 (.1D)
   E5D38 PROC      QCD$DE_EDIT                     1511 (.5E7)
   E6320 RODATA    QCE$ERRORS                       225 (.E1)
   E6402 PROC      QCE$ERRORS                      1515 (.5EB)
   E69EE RODATA    QCE$ERRORS                         3 (.3)
   E69F2 PROC      QCE$ERRORS_ASYNC                 169 (.A9)
   E6A9C RODATA    QCE$ERRORS_ASYNC                   9 (.9)
   E6AA6 PROC      QCE$EXPERIENCE_M$XBREAK           52 (.34)
   E6ADA PROC      QCF$FIND_CURRENTS                187 (.BB)
   E6B96 RODATA    QCF$FIND_CURRENTS                  3 (.3)
   E6B9A PROC      QCG$GET_FIELD                    396 (.18C)
   E6D26 RODATA    QCG$GET_FIELD                      8 (.8)
   E6D2E PROC      QCI$IFS                          130 (.82)
   E6DB0 RODATA    QCI$IFS                            2 (.2)
   E6DB2 RODATA    QCI$IO_READ                        1 (.1)
   E6DB4 PROC      QCI$IO_READ                      840 (.348)
   E70FC RODATA    QCI$IO_READ                        8 (.8)
   E7104 PROC      QCI$IO_WRITE                     308 (.134)
   E7238 RODATA    QCI$IO_WRITE                       5 (.5)
   E723E PROC      QCM$MESS                         838 (.346)
   E7584 RODATA    QCM$MESS                          12 (.C)
   E7590 RODATA    QCR$READ                         278 (.116)
   E76A6 PROC      QCR$READ                        2722 (.AA2)
   E8148 RODATA    QCR$READ                          11 (.B)
   E8154 PROC      QCS$SETUP                        371 (.173)
   E82C8 PROC      QCU$UNSIGN                       355 (.163)
   E842C PROC      QCU$UTILITIES                    167 (.A7)
   E84D4 RODATA    QCU$UTILITIES                      6 (.6)
   E84DA PROC      QCU$USE                          820 (.334)
   E880E RODATA    QCU$USE                           11 (.B)
   E881A RODATA    QCU$USE_CALL                      11 (.B)
   E8826 PROC      QCU$USE_CALL                     490 (.1EA)
   E8A10 RODATA    QCU$USE_CALL                      10 (.A)
   E8A1A PROC      QCW$WRITE                        201 (.C9)
   E8AE4 RODATA    QCW$WRITE                          5 (.5)
   E8AEA RODATA    QI_DATA_D                        828 (.33C)
   E8E26 PROC      QI_DATA_D                          0 (.0)
   E8E26 RODATA    QGB$BUFFER_VDO                    31 (.1F)
   E8E46 PROC      QGB$BUFFER_VDO                  2547 (.9F3)
   E983A RODATA    QGB$BUFFER_VDO                     2 (.2)
   E983C PROC      G_PATCHI                         303 (.12F)
******** PRIMARY ENTRY DEFINITIONS SORTED BY NAME ********
       E00AC  * -  G_COPYRIGHT           E983F  * -  G_PATCHI              E0008       QAT$TALLYHO
       E0412    -  QAT$TALLYHO_          E055A    -  QAT$TALLYHO_USE       E099C    -  QBA$ABORT
       E0A14    -  QBA$ACCEPT            E0F62    -  QBA$ACTIVATE
       E56E1    -  QBA$ALL_LITERAL_MOVE                                    E1A44    -  QBA$APPLY
       E0F6C    -  QBA$DEACTIVATE        E183A    -  QBA$DEACTIVATE_FORM
       E18A3    -  QBA$DEACTIVATE_FRAME                                    E1C5A    -  QBC$CALL
       E1CFC    -  QBC$CLEAR             E1F3A    -  QBC$CLOSE             E2165  * -  QBC$CNVBBX
       E20D5    -  QBC$CNVBN             E2121    -  QBC$CNVBNX            E213C    -  QBC$CNVBPX
       E21C8    -  QBC$CNVNBT            E21D7    -  QBC$CNVPBT            E222B    -  QBC$CNVPN
       E20CE  * -  QBC$CONVERSIONS       E229C    -  QBD$DISPLAY           E2424    -  QBE$DISABLE
       E241A    -  QBE$ENABLE            E259D    -  QBG$GOTO              E25B2    -  QBG$GOTODP
       E2596  * -  QBG$GOTOS             E2677    -  QBI$IFCLS             E27C8    -  QBI$IFCNDA
       E27DC    -  QBI$IFCNDN            E28A5    -  QBI$IFRELA            E28F3    -  QBI$IFRELG
       E28D1    -  QBI$IFRELN            E2670  * -  QBI$IFS
       E298C    -  QBI$IF_INDICATOR      E2AB6    -  QBI$INSPECT           E2EF5    -  QBJ$JAZ
       E2F1A    -  QBJ$JND               E2EEE  * -  QBJ$JUMPS             E2F4A    -  QBL$LOAD
       E33BB    -  QBM$MOVA              E3449    -  QBM$MOVAE             E3464    -  QBM$MOVAE_VP
       E3558    -  QBM$MOVAJ             E3573    -  QBM$MOVAJ_VP          E33D6    -  QBM$MOVA_VP
       E37CA    -  QBM$MOVB              E3847    -  QBM$MOVBA             E3814    -  QBM$MOVB_VP
       E3639    -  QBM$MOVDE             E3664    -  QBM$MOVDE_VP          E33B4  * -  QBM$MOVES
       E36A7    -  QBM$MOVG              E37A6    -  QBM$MOVN              E3823    -  QBM$MOVNA
       E38A5    -  QBM$MOVNE             E38EC    -  QBM$MOVNEA            E38D3    -  QBM$MOVNE_VP
       E37FD    -  QBM$MOVN_VP           E37B8    -  QBM$MOVP              E3835    -  QBM$MOVPA
       E3804    -  QBM$MOVP_VP           E39CE    -  QBO$OPEN              E3B6F    -  QBP$PERFM
       E3BDE    -  QBP$PERFMT            E3B68  * -  QBP$PERFORMS          E3C1A    -  QBR$READ_FORM
       E3D96    -  QBR$READ_TRAN         E4024    -  QBS$STOP_PAUSE        E41EC    -  QBS$STOP_RUN
       E41FE    -  QBS$SUBSCRIPT         E45D5    -  QBV$PRESENT           E45DE    -  QBV$VERIFY
       E45CE  * -  QBV$VERI_PRES         E4F42    -  QBW$WRITE_FORM        E5088    -  QBW$WRITE_TRAN
       E5299    -  QBX$ADD               E52D4    -  QBX$ADDX              E5292  * -  QBX$ARITHMETICS
       E533C    -  QBX$DIV               E53B6    -  QBX$DIVX              E543A    -  QBX$MULT
       E547E    -  QBX$MULTX             E55F8    -  QBX$ROUND             E54F4    -  QBX$SUB
       E552F    -  QBX$SUBX              E564D    -  QCA$ALL_LITERAL_IF
       E5646  * -  QCA$ALL_LITERAL_IFS
       E56DA  * -  QCA$ALL_LITERAL_MOVES
       E5772    -  QCA$ALL_LITERAL_MOVE_A
       E57A8    -  QCA$ALL_LITERAL_MOVE_AE
       E5720    -  QCA$ALL_LITERAL_MOVE_AJ                                 E592E    -  QCC$ACM
       E5976    -  QCC$ALR               E59AC    -  QCC$CALL              E59C0    -  QCC$CBD
       E5A1A    -  QCC$CDB               E5A76    -  QCC$DAD               E5AD4    -  QCC$DCM
       E5B1A    -  QCC$DDV               E5B3C    -  QCC$DLS               E5B4E    -  QCC$DMC
       E5BAA    -  QCC$DME               E5BFC    -  QCC$DML               E5C52    -  QCC$DRS
       E5C66    -  QCC$DSB               E5CC4    -  QCC$MAT               E5CFC    -  QCC$SRCH
       E5D1A    -  QCC$VRFY              E5D38    -  QCD$DE_EDIT           E652D    -  QCE$ERROR
       E6402  * -  QCE$ERRORS            E69F2  * -  QCE$ERRORS_ASYNC
       E69F9    -  QCE$ERROR_DBCONTROL                                     E6A05    -  QCE$ERROR_INT
       E6831    -  QCE$ERROR_INTERNAL
       E686D    -  QCE$ERROR_M$INTERNAL
       E6409    -  QCE$ERROR_MESSAGE                                       E6A28    -  QCE$ERROR_TRAP
       E6AA6    -  QCE$EXPERIENCE_M$XBREAK
       E6ADA    -  QCF$FIND_CURRENTS                                       E6B9A    -  QCG$GET_FIELD
       E6BA3    -  QCG$GET_FIELD_ILLEGAL                                   E6D35    -  QCI$IFA
       E6D88    -  QCI$IFG               E6D77    -  QCI$IFN               E6D2E  * -  QCI$IFS
       E6DB4    -  QCI$IO_READ           E7104    -  QCI$IO_WRITE          E723E    -  QCM$MESS
       E74BB    -  QCM$MESS_ERASE        E7446    -  QCM$MESS_PAUSE        E76A6    -  QCR$READ
       E8154  * -  QCS$SETUP             E8174    -  QCS$SETUP_AUX
       E815B    -  QCS$SETUP_SOURCE      E8167    -  QCS$SETUP_TARGET
       E8433    -  QCU$RESTORE_PAGEHALT                                    E82C8  * -  QCU$UNSIGN
       E82F2  * -  QCU$UNSIGN_AUX        E82CF    -  QCU$UNSIGN_SOURCE
       E82E0    -  QCU$UNSIGN_TARGET
       E847C    -  QCU$UPDATE_SCREEN                                       E84DA  * -  QCU$USE
       E8826    -  QCU$USE_CALL          E84E1    -  QCU$USE_INVALID_IO
       E84EA  * -  QCU$USE_INVALID_VERIFY                                  E84F7    -  QCU$USE_IO
       E8500  * -  QCU$USE_VERIFY        E842C  * -  QCU$UTILITIES         E8A1A    -  QCW$WRITE
       E8E46  * -  QGB$BUFFER_VDO        E8E6A    -  QGB$CLOSE             E8E87    -  QGB$DCLFLD
       E900B    -  QGB$DEVICE            E8EE3    -  QGB$ERASE             E902A    -  QGB$FLUSH
       E8E9E    -  QGB$MDFFLD            E8E4D    -  QGB$OPEN              E8F38    -  QGB$READ
       E8ECC    -  QGB$RLSFLD            E8EB5    -  QGB$SLCFLD            E8EFA    -  QGB$WRITE
       E099C  * -  QIE$ERROR_MESS        E8E26  * -  QI_DATA_D             E000B       X6A@
       E021D    -  X6A@_                 E000E       X6A_AAALT             E02B3    -  X6A_AAALT_
       E0011       X6A_AALT              E00B3    -  X6A_AALT_             E0014       X6A_AARET
       E02A2    -  X6A_AARET_            E0017       X6A_AAUNWIND          E02C0    -  X6A_AAUNWIND_
       E001A       X6A_AAUTO             E0277    -  X6A_AAUTO_            E001D       X6A_ARET
       E00AC    -  X6A_ARET_             E0020       X6A_ASALT             E02BC    -  X6A_ASALT_
       E0023       X6A_ASRET             E02AB    -  X6A_ASRET_            E0026       X6A_ASTATIC
       E0297    -  X6A_ASTATIC_          E0029       X6A_ASUNWIND          E02C0    -  X6A_ASUNWIND_
       E002C       X6A_AUNWIND           E02C0    -  X6A_AUNWIND_          E002F       X6A_AUTO_0
       E00BD    -  X6A_AUTO_0_           E0032       X6A_AUTO_1            E00D2    -  X6A_AUTO_1_
       E0035       X6A_AUTO_2            E00F4    -  X6A_AUTO_2_           E0038       X6A_AUTO_3
       E011D    -  X6A_AUTO_3_           E003B       X6A_AUTO_N            E014D    -  X6A_AUTO_N_
       E003E       X6A_FARET             E00AC    -  X6A_FARET_            E0041       X6A_INTRET
       E02CA    -  X6A_INTRET_           E0044       X6A_MAALT             E02AF    -  X6A_MAALT_
       E0047       X6A_MARET             E029E    -  X6A_MARET_            E004A       X6A_MAUNWIND
       E02C0    -  X6A_MAUNWIND_         E004D       X6A_MAUTO             E021D    -  X6A_MAUTO_
       E0050       X6A_MERCS             E02E0    -  X6A_MERCS_            E0053       X6A_MSALT
       E02AF    -  X6A_MSALT_            E0056       X6A_MSRET             E029E    -  X6A_MSRET_
       E0059       X6A_MSTATIC           E0262    -  X6A_MSTATIC_          E005C       X6A_MSUNWIND
       E02C0    -  X6A_MSUNWIND_         E005F       X6A_STATIC_0          E01AF    -  X6A_STATIC_0_
       E0062       X6A_STATIC_1          E01B5    -  X6A_STATIC_1_         E0065       X6A_STATIC_2
       E01C7    -  X6A_STATIC_2_         E0068       X6A_STATIC_3          E01E1    -  X6A_STATIC_3_
       E006B       X6A_STATIC_N          E0202    -  X6A_STATIC_N_         E006E       X6A_SUNWIND
       E02C0    -  X6A_SUNWIND_          E0071       X6A_TRTN              E02DD    -  X6A_TRTN_
       E0074       X6B_BCM               E036D    -  X6B_BCM_              E0077       X6B_BLR
       E036B    -  X6B_BLR_              E007A       X6C_ACM               E007D       X6C_ACMZ
       E0329    -  X6C_ACMZ_             E032B    -  X6C_ACM_              E0080       X6C_ALR
       E0083       X6C_ALRZ              E0348    -  X6C_ALRZ_             E0362    -  X6C_ALR_
       E0086       X6C_MAT               E038E    -  X6C_MAT_              E0089       X6C_SRCH
       E03AA    -  X6C_SRCH_             E008C       X6D_MID               E03F1    -  X6D_MID_
       E008F  * -  _TV_EN                E0008  * -  _TV_ST
******** PRIMARY ENTRY DEFINITIONS SORTED BY VALUE ********
       E0008  * -  _TV_ST                E0008       QAT$TALLYHO           E000B       X6A@
       E000E       X6A_AAALT             E0011       X6A_AALT              E0014       X6A_AARET
       E0017       X6A_AAUNWIND          E001A       X6A_AAUTO             E001D       X6A_ARET
       E0020       X6A_ASALT             E0023       X6A_ASRET             E0026       X6A_ASTATIC
       E0029       X6A_ASUNWIND          E002C       X6A_AUNWIND           E002F       X6A_AUTO_0
       E0032       X6A_AUTO_1            E0035       X6A_AUTO_2            E0038       X6A_AUTO_3
       E003B       X6A_AUTO_N            E003E       X6A_FARET             E0041       X6A_INTRET
       E0044       X6A_MAALT             E0047       X6A_MARET             E004A       X6A_MAUNWIND
       E004D       X6A_MAUTO             E0050       X6A_MERCS             E0053       X6A_MSALT
       E0056       X6A_MSRET             E0059       X6A_MSTATIC           E005C       X6A_MSUNWIND
       E005F       X6A_STATIC_0          E0062       X6A_STATIC_1          E0065       X6A_STATIC_2
       E0068       X6A_STATIC_3          E006B       X6A_STATIC_N          E006E       X6A_SUNWIND
       E0071       X6A_TRTN              E0074       X6B_BCM               E0077       X6B_BLR
       E007A       X6C_ACM               E007D       X6C_ACMZ              E0080       X6C_ALR
       E0083       X6C_ALRZ              E0086       X6C_MAT               E0089       X6C_SRCH
       E008C       X6D_MID               E008F  * -  _TV_EN                E00AC    -  X6A_FARET_
       E00AC    -  X6A_ARET_             E00AC  * -  G_COPYRIGHT           E00B3    -  X6A_AALT_
       E00BD    -  X6A_AUTO_0_           E00D2    -  X6A_AUTO_1_           E00F4    -  X6A_AUTO_2_
       E011D    -  X6A_AUTO_3_           E014D    -  X6A_AUTO_N_           E01AF    -  X6A_STATIC_0_
       E01B5    -  X6A_STATIC_1_         E01C7    -  X6A_STATIC_2_         E01E1    -  X6A_STATIC_3_
       E0202    -  X6A_STATIC_N_         E021D    -  X6A_MAUTO_            E021D    -  X6A@_
       E0262    -  X6A_MSTATIC_          E0277    -  X6A_AAUTO_            E0297    -  X6A_ASTATIC_
       E029E    -  X6A_MSRET_            E029E    -  X6A_MARET_            E02A2    -  X6A_AARET_
       E02AB    -  X6A_ASRET_            E02AF    -  X6A_MSALT_            E02AF    -  X6A_MAALT_
       E02B3    -  X6A_AAALT_            E02BC    -  X6A_ASALT_            E02C0    -  X6A_SUNWIND_
       E02C0    -  X6A_MSUNWIND_         E02C0    -  X6A_MAUNWIND_         E02C0    -  X6A_AUNWIND_
       E02C0    -  X6A_ASUNWIND_         E02C0    -  X6A_AAUNWIND_         E02CA    -  X6A_INTRET_
       E02DD    -  X6A_TRTN_             E02E0    -  X6A_MERCS_            E0329    -  X6C_ACMZ_
       E032B    -  X6C_ACM_              E0348    -  X6C_ALRZ_             E0362    -  X6C_ALR_
       E036B    -  X6B_BLR_              E036D    -  X6B_BCM_              E038E    -  X6C_MAT_
       E03AA    -  X6C_SRCH_             E03F1    -  X6D_MID_              E0412    -  QAT$TALLYHO_
       E055A    -  QAT$TALLYHO_USE       E099C  * -  QIE$ERROR_MESS        E099C    -  QBA$ABORT
       E0A14    -  QBA$ACCEPT            E0F62    -  QBA$ACTIVATE          E0F6C    -  QBA$DEACTIVATE
       E183A    -  QBA$DEACTIVATE_FORM
       E18A3    -  QBA$DEACTIVATE_FRAME                                    E1A44    -  QBA$APPLY
       E1C5A    -  QBC$CALL              E1CFC    -  QBC$CLEAR             E1F3A    -  QBC$CLOSE
       E20CE  * -  QBC$CONVERSIONS       E20D5    -  QBC$CNVBN             E2121    -  QBC$CNVBNX
       E213C    -  QBC$CNVBPX            E2165  * -  QBC$CNVBBX            E21C8    -  QBC$CNVNBT
       E21D7    -  QBC$CNVPBT            E222B    -  QBC$CNVPN             E229C    -  QBD$DISPLAY
       E241A    -  QBE$ENABLE            E2424    -  QBE$DISABLE           E2596  * -  QBG$GOTOS
       E259D    -  QBG$GOTO              E25B2    -  QBG$GOTODP            E2670  * -  QBI$IFS
       E2677    -  QBI$IFCLS             E27C8    -  QBI$IFCNDA            E27DC    -  QBI$IFCNDN
       E28A5    -  QBI$IFRELA            E28D1    -  QBI$IFRELN            E28F3    -  QBI$IFRELG
       E298C    -  QBI$IF_INDICATOR      E2AB6    -  QBI$INSPECT           E2EEE  * -  QBJ$JUMPS
       E2EF5    -  QBJ$JAZ               E2F1A    -  QBJ$JND               E2F4A    -  QBL$LOAD
       E33B4  * -  QBM$MOVES             E33BB    -  QBM$MOVA              E33D6    -  QBM$MOVA_VP
       E3449    -  QBM$MOVAE             E3464    -  QBM$MOVAE_VP          E3558    -  QBM$MOVAJ
       E3573    -  QBM$MOVAJ_VP          E3639    -  QBM$MOVDE             E3664    -  QBM$MOVDE_VP
       E36A7    -  QBM$MOVG              E37A6    -  QBM$MOVN              E37B8    -  QBM$MOVP
       E37CA    -  QBM$MOVB              E37FD    -  QBM$MOVN_VP           E3804    -  QBM$MOVP_VP
       E3814    -  QBM$MOVB_VP           E3823    -  QBM$MOVNA             E3835    -  QBM$MOVPA
       E3847    -  QBM$MOVBA             E38A5    -  QBM$MOVNE             E38D3    -  QBM$MOVNE_VP
       E38EC    -  QBM$MOVNEA            E39CE    -  QBO$OPEN              E3B68  * -  QBP$PERFORMS
       E3B6F    -  QBP$PERFM             E3BDE    -  QBP$PERFMT            E3C1A    -  QBR$READ_FORM
       E3D96    -  QBR$READ_TRAN         E4024    -  QBS$STOP_PAUSE        E41EC    -  QBS$STOP_RUN
       E41FE    -  QBS$SUBSCRIPT         E45CE  * -  QBV$VERI_PRES         E45D5    -  QBV$PRESENT
       E45DE    -  QBV$VERIFY            E4F42    -  QBW$WRITE_FORM        E5088    -  QBW$WRITE_TRAN
       E5292  * -  QBX$ARITHMETICS       E5299    -  QBX$ADD               E52D4    -  QBX$ADDX
       E533C    -  QBX$DIV               E53B6    -  QBX$DIVX              E543A    -  QBX$MULT
       E547E    -  QBX$MULTX             E54F4    -  QBX$SUB               E552F    -  QBX$SUBX
       E55F8    -  QBX$ROUND             E5646  * -  QCA$ALL_LITERAL_IFS
       E564D    -  QCA$ALL_LITERAL_IF
       E56DA  * -  QCA$ALL_LITERAL_MOVES
       E56E1    -  QBA$ALL_LITERAL_MOVE
       E5720    -  QCA$ALL_LITERAL_MOVE_AJ
       E5772    -  QCA$ALL_LITERAL_MOVE_A
       E57A8    -  QCA$ALL_LITERAL_MOVE_AE                                 E592E    -  QCC$ACM
       E5976    -  QCC$ALR               E59AC    -  QCC$CALL              E59C0    -  QCC$CBD
       E5A1A    -  QCC$CDB               E5A76    -  QCC$DAD               E5AD4    -  QCC$DCM
       E5B1A    -  QCC$DDV               E5B3C    -  QCC$DLS               E5B4E    -  QCC$DMC
       E5BAA    -  QCC$DME               E5BFC    -  QCC$DML               E5C52    -  QCC$DRS
       E5C66    -  QCC$DSB               E5CC4    -  QCC$MAT               E5CFC    -  QCC$SRCH
       E5D1A    -  QCC$VRFY              E5D38    -  QCD$DE_EDIT           E6402  * -  QCE$ERRORS
       E6409    -  QCE$ERROR_MESSAGE                                       E652D    -  QCE$ERROR
       E6831    -  QCE$ERROR_INTERNAL
       E686D    -  QCE$ERROR_M$INTERNAL
       E69F2  * -  QCE$ERRORS_ASYNC      E69F9    -  QCE$ERROR_DBCONTROL
       E6A05    -  QCE$ERROR_INT         E6A28    -  QCE$ERROR_TRAP
       E6AA6    -  QCE$EXPERIENCE_M$XBREAK
       E6ADA    -  QCF$FIND_CURRENTS                                       E6B9A    -  QCG$GET_FIELD
       E6BA3    -  QCG$GET_FIELD_ILLEGAL                                   E6D2E  * -  QCI$IFS
       E6D35    -  QCI$IFA               E6D77    -  QCI$IFN               E6D88    -  QCI$IFG
       E6DB4    -  QCI$IO_READ           E7104    -  QCI$IO_WRITE          E723E    -  QCM$MESS
       E7446    -  QCM$MESS_PAUSE        E74BB    -  QCM$MESS_ERASE        E76A6    -  QCR$READ
       E8154  * -  QCS$SETUP             E815B    -  QCS$SETUP_SOURCE
       E8167    -  QCS$SETUP_TARGET      E8174    -  QCS$SETUP_AUX         E82C8  * -  QCU$UNSIGN
       E82CF    -  QCU$UNSIGN_SOURCE
       E82E0    -  QCU$UNSIGN_TARGET                                       E82F2  * -  QCU$UNSIGN_AUX
       E842C  * -  QCU$UTILITIES         E8433    -  QCU$RESTORE_PAGEHALT
       E847C    -  QCU$UPDATE_SCREEN                                       E84DA  * -  QCU$USE
       E84E1    -  QCU$USE_INVALID_IO
       E84EA  * -  QCU$USE_INVALID_VERIFY                                  E84F7    -  QCU$USE_IO
       E8500  * -  QCU$USE_VERIFY        E8826    -  QCU$USE_CALL          E8A1A    -  QCW$WRITE
       E8E26  * -  QI_DATA_D             E8E46  * -  QGB$BUFFER_VDO        E8E4D    -  QGB$OPEN
       E8E6A    -  QGB$CLOSE             E8E87    -  QGB$DCLFLD            E8E9E    -  QGB$MDFFLD
       E8EB5    -  QGB$SLCFLD            E8ECC    -  QGB$RLSFLD            E8EE3    -  QGB$ERASE
       E8EFA    -  QGB$WRITE             E8F38    -  QGB$READ              E900B    -  QGB$DEVICE
       E902A    -  QGB$FLUSH             E983F  * -  G_PATCHI
******** PRIMARY DATA DEFINITIONS SORTED BY NAME ********
       E0092  *    COPYRIGHT              1016    L  G$AUTO_DS$             1018    L  G$AUTO_T$
        1002    L  G$JIT$                 1012  * L  G$PIA$                E0002    L  G$ROS$
       E0000    L  G$TCB$                1016F  * L  G_PATCHD              1016C  * L  G_PATCHDH
       E983C  * L  G_PATCHIH             E0004  * L  G_VERSION                 3 =  L  M$ME
       10132       QGB_PARAM             10080       QI_1
       E8E1A       QI_16_BIT_BINARY      E8E18       QI_31_DIGIT_SLS_DISPLAY
       E8E1E       QI_31_DIGIT_ST_PACKED
       E8E1C       QI_32_BIT_BINARY      E8E16       QI_4_CHAR_ALPHANUMERIC
       E8E22       QI_ACCUMULATOR_DAD                                      E8D86  *    QI_ALR
       E8AEF  *    QI_BINARY_ZERO        E8AEA       QI_BLANK              E8AF0       QI_CLASS_ALPHA
       E8B70       QI_CLASS_NUMERIC      E8C02       QI_FPT_CLOSE
       E8C12       QI_FPT_DBCONTROL      E8C1A       QI_FPT_DCLFLD         E8C2B       QI_FPT_DEVICE
       E8C3A       QI_FPT_ERASE          E8C43       QI_FPT_ERRMSG         E8C66       QI_FPT_EXIT
       E8C6E       QI_FPT_FDS            E8C76       QI_FPT_FDS_LOAD       E8C7E       QI_FPT_GDS
       E8C86       QI_FPT_GDS_BUFFER                                       E8C8E       QI_FPT_GDS_LOAD
       E8C96       QI_FPT_GLINEATTR      E8C9D       QI_FPT_INT            E8CA5       QI_FPT_LDTRC
       E8CB9       QI_FPT_MDFFLD         E8CC8       QI_FPT_OPEN           E8CF7       QI_FPT_PROMPT
       E8CFF       QI_FPT_READ           E8D1D       QI_FPT_RLSFLD         E8D25       QI_FPT_SLCFLD
       E8D2D       QI_FPT_TIME           E8D3D       QI_FPT_TRAP           E8D4F       QI_FPT_TRMATTR
       E8D56       QI_FPT_TRMCTL         E8D66       QI_FPT_WAIT           E8D70       QI_FPT_WRITE
       E8D82       QI_FPT_XBREAK         E8DFE       QI_MAT                E8AEB       QI_MAT_MATCH
       E8AEC       QI_MAT_NONMATCH       E040C  *    QI_OLDEST_COMPILER_VERSION
       E8BF0       QI_OVERPUNCHED_SIGNS
       E8E20       QI_PICTURE_STRING                                       E8AED       QI_SLASH
       E8DE6       QI_SRCH_VRFY          10122       QI_SWORK              1012A       QI_SWORK_2
       E8DCE  *    QI_TYPE_BINARY_TARGET
       E8D9E  *    QI_TYPE_DISPLAY_SOURCE
       E8DB6       QI_TYPE_DISPLAY_TARGET                                  E8D11       QI_VLP_CG
       E8C28       QI_VLP_FLDATR         1014D       QI_VLP_SEGMENT
       10150       QI_VLP_SEGMENT_BUFFER
       10153       QI_VLP_SEGMENT_LOAD
       E8D43       QI_VLP_TRAP_CONDITIONS                                  E8D5E       QI_VLP_TRMCTL
       10156       QI_VLP_XBREAK         E8AEE       QI_ZERO
       E8BFA       QI_ZERO_ACCUMULATOR
******** PRIMARY DATA DEFINITIONS SORTED BY VALUE ********
           3 =  L  M$ME                   1002    L  G$JIT$                 1012  * L  G$PIA$
        1016    L  G$AUTO_DS$             1018    L  G$AUTO_T$             10080       QI_1
       10122       QI_SWORK              1012A       QI_SWORK_2            10132       QGB_PARAM
       1014D       QI_VLP_SEGMENT        10150       QI_VLP_SEGMENT_BUFFER
       10153       QI_VLP_SEGMENT_LOAD                                     10156       QI_VLP_XBREAK
       1016C  * L  G_PATCHDH             1016F  * L  G_PATCHD              E0000    L  G$TCB$
       E0002    L  G$ROS$                E0004  * L  G_VERSION             E0092  *    COPYRIGHT
       E040C  *    QI_OLDEST_COMPILER_VERSION                              E8AEA       QI_BLANK
       E8AEB       QI_MAT_MATCH          E8AEC       QI_MAT_NONMATCH       E8AED       QI_SLASH
       E8AEE       QI_ZERO               E8AEF  *    QI_BINARY_ZERO        E8AF0       QI_CLASS_ALPHA
       E8B70       QI_CLASS_NUMERIC      E8BF0       QI_OVERPUNCHED_SIGNS
       E8BFA       QI_ZERO_ACCUMULATOR                                     E8C02       QI_FPT_CLOSE
       E8C12       QI_FPT_DBCONTROL      E8C1A       QI_FPT_DCLFLD         E8C28       QI_VLP_FLDATR
       E8C2B       QI_FPT_DEVICE         E8C3A       QI_FPT_ERASE          E8C43       QI_FPT_ERRMSG
       E8C66       QI_FPT_EXIT           E8C6E       QI_FPT_FDS            E8C76       QI_FPT_FDS_LOAD
       E8C7E       QI_FPT_GDS            E8C86       QI_FPT_GDS_BUFFER
       E8C8E       QI_FPT_GDS_LOAD       E8C96       QI_FPT_GLINEATTR      E8C9D       QI_FPT_INT
       E8CA5       QI_FPT_LDTRC          E8CB9       QI_FPT_MDFFLD         E8CC8       QI_FPT_OPEN
       E8CF7       QI_FPT_PROMPT         E8CFF       QI_FPT_READ           E8D11       QI_VLP_CG
       E8D1D       QI_FPT_RLSFLD         E8D25       QI_FPT_SLCFLD         E8D2D       QI_FPT_TIME
       E8D3D       QI_FPT_TRAP           E8D43       QI_VLP_TRAP_CONDITIONS
       E8D4F       QI_FPT_TRMATTR        E8D56       QI_FPT_TRMCTL         E8D5E       QI_VLP_TRMCTL
       E8D66       QI_FPT_WAIT           E8D70       QI_FPT_WRITE          E8D82       QI_FPT_XBREAK
       E8D86  *    QI_ALR                E8D9E  *    QI_TYPE_DISPLAY_SOURCE
       E8DB6       QI_TYPE_DISPLAY_TARGET
       E8DCE  *    QI_TYPE_BINARY_TARGET                                   E8DE6       QI_SRCH_VRFY
       E8DFE       QI_MAT                E8E16       QI_4_CHAR_ALPHANUMERIC
       E8E18       QI_31_DIGIT_SLS_DISPLAY
       E8E1A       QI_16_BIT_BINARY      E8E1C       QI_32_BIT_BINARY
       E8E1E       QI_31_DIGIT_ST_PACKED
       E8E20       QI_PICTURE_STRING
       E8E22       QI_ACCUMULATOR_DAD                                      E983C  * L  G_PATCHIH
..STIing

File Name = :SHARED_FPL
   File Type = FEP Run unit
   Product = FEP COM
   Version = E05
   Time Stamp at Birth
      Time = 14:03
      Date = JUL 30 '97
   Marketing Identifier = SFC6501
   ** STI record created
