VERSION E05
          1  - FEPLINK ;
          2  -     G_COPYRIGHT.:E05TOU  ,;
          3  -     GDZ$ANLZ.:E05TOU  ,;
          4  -     GDB$BRKPNTS.:E05TOU  ,;
          5  -     GDH$HARDWARE.:E05TOU  ,;
          6  -     GDI$INTERFACE.:E05TOU  ,;
          7  -     GDM$LETDEC.:E05TOU  ,;
          8  -     GDM$MEMORY.:E05TOU  ,;
          9  -     GDU$USE.:E05TOU  ,;
         10  -     GDK$RESADDR.:E05TOU  ,;
         11  -     GDK$MPTR.:E05TOU  ,;
         12  -     GDK$DECBIN.:E05TOU  ,;
         13  -     GHH$HARDWARE.:E05TOU  ,;
         14  -     G_UPTRS_D.:E05TOU  ,   ;
         15  -     GD_MPTRS_D.:E05TOU  ,  ;
         16  -     X6A$CSEQU.:E05TOU      ;
         17  -     OVER DELTA_FPRG.:E05TGNS ;
         18  -     (MAP(NAME,VALUE,U),;
         19  -      SEV=15,;
         20  -      PRIV=(MSYS),;
         21  -      IPATCH=400,;
         22  -      DPATCH=200,;
         23  -      DCBSLOTS=5,;
         24  -      NOSHARELIB,;
         25  -      VERSION='E05')
        * * ALLOCATION SUMMARY * *
 PROTECTION          LOCATION       PAGES
 READ ONLY               1000           1
 DATA                   10000           6
 PROCEDURE              20000          41
  * No linking errors.
  * Total program size =   18K.
  ***5 unsatisfied secondary entry reference(s)
  ***2 unsatisfied secondary data reference(s)
**********************            CP6 FEP LINK MAP  VERSION = E00              **********************
********************** RF    = DELTA_FPRG                      ACN  = :E05TGNS **********************
********************** SEV   =     0                           SIZE =    18 K  **********************
********************** START = 2007C                           BIAS = 10000    **********************
********************** UTS   = 07/30/97  14:12:01.12  WED                      **********************
SHARED LIBRARY
                               
<HEX_ADDRESS><CON_DEF><SOURCE><USED><MULT_DEF><DEFINITION_NAME>
    <CON_DEF>   <USED>    <MULT_DEF>                      <SOURCE>
YES:    =       <BLANK>       +          OBJECT FILE      <BLANK>
NO : <BLANK>      *        <BLANK>       SHARED LIB.         S
                                         ALT. SHARED LIB.    A
                                         PRIVATE LIB.        P
                                         LINKER SUPPLIED     L
                                         RUN FILE            R
                                         REMOVED             -
*********** PROTECTION TYPES ***********
            DATA   PROCEDURE   READ ONLY
            ----   ---------   ---------
HIGH:      105CD       240E6        1041
LOW :      10000       20000        1000
SIZE:        5CD        40E7          42
******** CONTROL SECTIONS SORTED BY VALUE ********
   10000 DATA      DELTA_FPRG                      1281 (.501)
   10502 DATA      G_PATCHD                         203 (.CB)
   20000 RODATA    <FEPLINK supplied data items>      8 (.8)
   20008 RODATA    G_COPYRIGHT                       26 (.1A)
   20022 PROC      G_COPYRIGHT                        0 (.0)
   20022 RODATA    DELTA_FPRG                        90 (.5A)
   2007C PROC      DELTA_FPRG                       320 (.140)
   201BC RODATA    DELTA_FPRG                         3 (.3)
   201C0 PROC      GDB$BLD_BRKPNT                   819 (.333)
   204F4 RODATA    GDB$FIRST_USER_TRAP                2 (.2)
   204F6 PROC      GDB$FIRST_USER_TRAP             3448 (.D78)
   2126E RODATA    GDB$FIRST_USER_TRAP                3 (.3)
   21272 PROC      GDB$GET_CONTROL                  241 (.F1)
   21364 PROC      GDB$KILL_ALLBRKPNTS              106 (.6A)
   213CE RODATA    GDB$KILL_ALLBRKPNTS                1 (.1)
   213D0 PROC      GDB$KILL_BRKPNT                  321 (.141)
   21512 PROC      GDB$RESET_BRKPNT                 209 (.D1)
   215E4 PROC      GDB$SET_BRKPNT                   143 (.8F)
   21674 PROC                                        16 (.10)
   21684 RODATA    GDI$DECODE_MSG                    31 (.1F)
   216A4 PROC      GDI$DECODE_MSG                  1281 (.501)
   21BA6 RODATA    GDI$SEND_ERROR_RESPONSE           18 (.12)
   21BB8 PROC      GDI$SEND_ERROR_RESPONSE          205 (.CD)
   21C86 RODATA    GDM$LETDEC                         1 (.1)
   21C88 PROC      GDM$LETDEC                       285 (.11D)
   21DA6 RODATA    GDM$DISPLAY                       14 (.E)
   21DB4 PROC      GDM$DISPLAY                     2147 (.863)
   22618 PROC      GDM$GRAB16                       128 (.80)
   22698 PROC      GDM$LCTHAND                      304 (.130)
   227C8 PROC      MAP_ADDRESS                      129 (.81)
   2284A PROC      GDU$DECODE_USE                   308 (.134)
   2297E RODATA    GDU$KTI                           64 (.40)
   229BE PROC      GDU$KTI                          380 (.17C)
   22B3A RODATA    GDU$SETUP_WINDOW_USER              5 (.5)
   22B40 PROC      GDU$SETUP_WINDOW_USER            574 (.23E)
   22D7E RODATA    GDK$RESADDR                        4 (.4)
   22D82 PROC      GDK$RESADDR                     2519 (.9D7)
   2375A RODATA    GDK$RESADDR                        1 (.1)
   2375C PROC      GDK$MPTR                         718 (.2CE)
   23A2A PROC                                       168 (.A8)
   23AD2 PROC      GHH$HARDWARE                     199 (.C7)
   23B9A RODATA    G_UPTRS_D                         50 (.32)
   23BCC PROC      G_UPTRS_D                          0 (.0)
   23BCC RODATA    GD_MPTRS_D                        44 (.2C)
   23BF8 PROC      GD_MPTRS_D                         0 (.0)
   23BF8 PROC      X6A@                             860 (.35C)
   23F54 PROC      G_PATCHI                         403 (.193)
    100C DCB       M$HANLZ                            0 (.0)
******** UNRESOLVED SECONDARY ENTRY REFERENCES ********
    GDA$RCVIOLD.GDI$DECODE_MSG          GDA$REXMT.GDI$DECODE_MSG
    GDA$USER_INIT.GDB$FIRST_USER_TRAP
    GDA$XMT.GDI$SEND_ERROR_RESPONSE     SCREECH.GHH$HARDWARE

******** UNRESOLVED SECONDARY DATA REFERENCES ********
    G$TSTACKM$.GHH$HARDWARE             GHH_SCODE.GHH$HARDWARE

******** PRIMARY ENTRY DEFINITIONS SORTED BY NAME ********
       2007C  *    DELTA_FPRG            201C0       GDB$BLD_BRKPNT
       204F6  *    GDB$FIRST_USER_TRAP                                     21272       GDB$GET_CONTROL
       21364       GDB$KILL_ALLBRKPNTS                                     213D0       GDB$KILL_BRKPNT
       21512       GDB$RESET_BRKPNT      215E4       GDB$SET_BRKPNT        20503  *    GDB$TRAP_HND
       21679       GDH$DMC               21674       GDH$LRDB              216A4  *    GDI$DECODE_MSG
       216B4       GDI$DECODE_MSG_WAIT_4_GO
       21BB8       GDI$SEND_ERROR_RESPONSE
       21BE8       GDI$SEND_RESPONSE                                       2375C       GDK$MPTR
       23A46       GDK$PTDECBIN          23A2A       GDK$PUDECBIN          22D82       GDK$RESADDR
       23A9A       GDK$ULDECBIN          23AB6       GDK$UODECBIN          23A7E       GDK$UTDECBIN
       23A62       GDK$UUDECBIN          21DB4       GDM$DISPLAY           21DC5       GDM$DISPLAY_D
       22618       GDM$GRAB16            22698       GDM$LCTHAND           21C88       GDM$LETDEC
       22248       GDM$LETMEM_D          22029       GDM$MODIFY            220B9       GDM$MODIFY_D
       225B2       GDM$TSA               2249B       GDM$UNFID             2284A       GDU$DECODE_USE
       229BE       GDU$KTI               22BAF       GDU$SETUP_WINDOW
       22B40       GDU$SETUP_WINDOW_USER                                   23BF8  *    GD_MPTRS_D
       23B02       GHH$ASD               23B7F  *    GHH$DISABLE           23B7B  *    GHH$ENABLE
       23B29  *    GHH$HLT               23AD2       GHH$IO                23AEA  *    GHH$IOLD
       23ADE       GHH$IO_IN             23AFA  *    GHH$LEV               23B2C  *    GHH$LOCK
       23B8E  *    GHH$LVL               23B78  *    GHH$RTCF              23B75  *    GHH$RTCN
       23AF9  *    GHH$RTT               23B0A  *    GHH$SETASDT_ASD       23B42  *    GHH$UNLOCK
       23B5E       GHH$VLD               23B72  *    GHH$WDTF              23B6F  *    GHH$WDTN
       20022  *    G_COPYRIGHT           23F57  * L  G_PATCHI              23BCC  *    G_UPTRS_D
       227C8       MAP_ADDRESS           23D69  *    X6A@                  23DFF  *    X6A_AAALT
       23BFF       X6A_AALT              23DEE  *    X6A_AARET             23E0C  *    X6A_AAUNWIND
       23DC3  *    X6A_AAUTO             23BF8       X6A_ARET              23E08  *    X6A_ASALT
       23DF7  *    X6A_ASRET             23DE3  *    X6A_ASTATIC           23E0C  *    X6A_ASUNWIND
       23E0C       X6A_AUNWIND           23C09       X6A_AUTO_0            23C1E       X6A_AUTO_1
       23C40       X6A_AUTO_2            23C69       X6A_AUTO_3            23C99       X6A_AUTO_N
       23BF8  *    X6A_FARET             23E16  *    X6A_INTRET            23DFB  *    X6A_MAALT
       23DEA       X6A_MARET             23E0C  *    X6A_MAUNWIND          23D69       X6A_MAUTO
       23E2C  *    X6A_MERCS             23DFB  *    X6A_MSALT             23DEA  *    X6A_MSRET
       23DAE  *    X6A_MSTATIC           23E0C  *    X6A_MSUNWIND          23CFB  *    X6A_STATIC_0
       23D01  *    X6A_STATIC_1          23D13  *    X6A_STATIC_2          23D2D  *    X6A_STATIC_3
       23D4E  *    X6A_STATIC_N          23E0C  *    X6A_SUNWIND           23E29  *    X6A_TRTN
       23EB9       X6B_BCM               23EB7       X6B_BLR               23E77  *    X6C_ACM
       23E75       X6C_ACMZ              23EAE  *    X6C_ALR               23E94       X6C_ALRZ
       23EDA  *    X6C_MAT               23EF6  *    X6C_SRCH              23F3D       X6D_MID
******** PRIMARY ENTRY DEFINITIONS SORTED BY VALUE ********
       20022  *    G_COPYRIGHT           2007C  *    DELTA_FPRG            201C0       GDB$BLD_BRKPNT
       204F6  *    GDB$FIRST_USER_TRAP                                     20503  *    GDB$TRAP_HND
       21272       GDB$GET_CONTROL       21364       GDB$KILL_ALLBRKPNTS
       213D0       GDB$KILL_BRKPNT       21512       GDB$RESET_BRKPNT      215E4       GDB$SET_BRKPNT
       21674       GDH$LRDB              21679       GDH$DMC               216A4  *    GDI$DECODE_MSG
       216B4       GDI$DECODE_MSG_WAIT_4_GO
       21BB8       GDI$SEND_ERROR_RESPONSE
       21BE8       GDI$SEND_RESPONSE                                       21C88       GDM$LETDEC
       21DB4       GDM$DISPLAY           21DC5       GDM$DISPLAY_D         22029       GDM$MODIFY
       220B9       GDM$MODIFY_D          22248       GDM$LETMEM_D          2249B       GDM$UNFID
       225B2       GDM$TSA               22618       GDM$GRAB16            22698       GDM$LCTHAND
       227C8       MAP_ADDRESS           2284A       GDU$DECODE_USE        229BE       GDU$KTI
       22B40       GDU$SETUP_WINDOW_USER
       22BAF       GDU$SETUP_WINDOW      22D82       GDK$RESADDR           2375C       GDK$MPTR
       23A2A       GDK$PUDECBIN          23A46       GDK$PTDECBIN          23A62       GDK$UUDECBIN
       23A7E       GDK$UTDECBIN          23A9A       GDK$ULDECBIN          23AB6       GDK$UODECBIN
       23AD2       GHH$IO                23ADE       GHH$IO_IN             23AEA  *    GHH$IOLD
       23AF9  *    GHH$RTT               23AFA  *    GHH$LEV               23B02       GHH$ASD
       23B0A  *    GHH$SETASDT_ASD       23B29  *    GHH$HLT               23B2C  *    GHH$LOCK
       23B42  *    GHH$UNLOCK            23B5E       GHH$VLD               23B6F  *    GHH$WDTN
       23B72  *    GHH$WDTF              23B75  *    GHH$RTCN              23B78  *    GHH$RTCF
       23B7B  *    GHH$ENABLE            23B7F  *    GHH$DISABLE           23B8E  *    GHH$LVL
       23BCC  *    G_UPTRS_D             23BF8  *    X6A_FARET             23BF8       X6A_ARET
       23BF8  *    GD_MPTRS_D            23BFF       X6A_AALT              23C09       X6A_AUTO_0
       23C1E       X6A_AUTO_1            23C40       X6A_AUTO_2            23C69       X6A_AUTO_3
       23C99       X6A_AUTO_N            23CFB  *    X6A_STATIC_0          23D01  *    X6A_STATIC_1
       23D13  *    X6A_STATIC_2          23D2D  *    X6A_STATIC_3          23D4E  *    X6A_STATIC_N
       23D69       X6A_MAUTO             23D69  *    X6A@                  23DAE  *    X6A_MSTATIC
       23DC3  *    X6A_AAUTO             23DE3  *    X6A_ASTATIC           23DEA  *    X6A_MSRET
       23DEA       X6A_MARET             23DEE  *    X6A_AARET             23DF7  *    X6A_ASRET
       23DFB  *    X6A_MSALT             23DFB  *    X6A_MAALT             23DFF  *    X6A_AAALT
       23E08  *    X6A_ASALT             23E0C  *    X6A_SUNWIND           23E0C  *    X6A_MSUNWIND
       23E0C  *    X6A_MAUNWIND          23E0C       X6A_AUNWIND           23E0C  *    X6A_ASUNWIND
       23E0C  *    X6A_AAUNWIND          23E16  *    X6A_INTRET            23E29  *    X6A_TRTN
       23E2C  *    X6A_MERCS             23E75       X6C_ACMZ              23E77  *    X6C_ACM
       23E94       X6C_ALRZ              23EAE  *    X6C_ALR               23EB7       X6B_BLR
       23EB9       X6B_BCM               23EDA  *    X6C_MAT               23EF6  *    X6C_SRCH
       23F3D       X6D_MID               23F57  * L  G_PATCHI
******** PRIMARY DATA DEFINITIONS SORTED BY NAME ********
       20008  *    COPYRIGHT             1000E       G$ASDT_MCL$           10009       G$ASDT_USR$
        1016    L  G$AUTO_DS$             1018    L  G$AUTO_T$             23BC0  *    G$BAUTO_DS$
       23BE4       G$BOBCAT$             23BF2  *    G$BPAR1$              23BF4  *    G$BPAR2$
       23BA6  *    G$CP_DS$              23BBE  *    G$CP_PROC$            23B9A  *    G$DB_DS$
       23BBC  *    G$DB_PROC$            23BA2  *    G$DS1$                23BA4  *    G$DS2$
       23BC2  *    G$DS3$                23BC4  *    G$DS4$                23BC6  *    G$HAND_Q$
       23BAE       G$ISR1$               23BB0       G$ISR2$               23BB2       G$ISR3$
       23BB4       G$ISR4$               23BB6       G$ISR5$               23BB8       G$ISR6$
       23BBA       G$ISR7$                1002    L  G$JIT$                23BA8  *    G$LAUTO_DS$
       23BAA  *    G$LAUTO_DS2$          23BAC  *    G$LAUTO_DS3$          23BC8  *    G$LIB_ISR1$
       23BCA  *    G$LIB_ISR2$           23B9C       G$LOW_MEM$            23BD6  *    G$LPAR1$
       23BD8  *    G$LPAR2$              23BDA  *    G$LPAR3$              23BDC  *    G$LPAR4$
       23BDE  *    G$LPAR5$              23BE0  *    G$LPAR6$              23BA0       G$MHJIT$
       23BD4  *    G$MON_ENT$            23BD2  *    G$MON_ENT_DATA$        1012  * L  G$PIA$
       20002    L  G$ROS$                2006D  *    G$SATYR_RCVISA$       2006E  *    G$SATYR_TRNISA$
       23BCC  *    G$SEG$                23BD0  *    G$SEG0007$            23BEA  *    G$SEG1400$
       23BEC  *    G$SEG1500$            20000    L  G$TCB$                23BCE  *    G$TSTACK$
       23BF6       G$UAUTO_DS$           23B9E       G$UHJIT$              23BEE       G$USRDS1$
       23BF0       G$USRDS2$             23BE6       G$USRDS3$             23BE8       G$USRDS4$
       10007       G$USRT$               23BE2  *    G$WINDOW1$            10005       GD$DELTA_DATA$
       2006F  *    GD_CHN                100E1  *    GD_DATA               20070  *    GD_DBG_INIT
       20071  *    GD_DBG_MONINIT        20072  *    GD_DWNLODCCP          20073  *    GD_DWNLODLCT
       20074  *    GD_LINSPD             20075       GH_LEV_INHIBIT        20076       GH_LEV_SUS
       20077       G_DIS                 10505  * L  G_PATCHD              10502  * L  G_PATCHDH
       23F54  * L  G_PATCHIH             20004  * L  G_VERSION                 1 =  L  M$DEBUG
           A =  L  M$HANLZ               10000  *    MONERR                10004  *    WAITING
       10003  *    WAIT_AFTER_BOMB       10002  *    WAIT_BEFORE_INIT      1000B  *    WINDOW_SEGMENT
******** PRIMARY DATA DEFINITIONS SORTED BY VALUE ********
           1 =  L  M$DEBUG                   A =  L  M$HANLZ                1002    L  G$JIT$
        1012  * L  G$PIA$                 1016    L  G$AUTO_DS$             1018    L  G$AUTO_T$
       10000  *    MONERR                10002  *    WAIT_BEFORE_INIT      10003  *    WAIT_AFTER_BOMB
       10004  *    WAITING               10005       GD$DELTA_DATA$        10007       G$USRT$
       10009       G$ASDT_USR$           1000B  *    WINDOW_SEGMENT        1000E       G$ASDT_MCL$
       100E1  *    GD_DATA               10502  * L  G_PATCHDH             10505  * L  G_PATCHD
       20000    L  G$TCB$                20002    L  G$ROS$                20004  * L  G_VERSION
       20008  *    COPYRIGHT             2006D  *    G$SATYR_RCVISA$       2006E  *    G$SATYR_TRNISA$
       2006F  *    GD_CHN                20070  *    GD_DBG_INIT           20071  *    GD_DBG_MONINIT
       20072  *    GD_DWNLODCCP          20073  *    GD_DWNLODLCT          20074  *    GD_LINSPD
       20075       GH_LEV_INHIBIT        20076       GH_LEV_SUS            20077       G_DIS
       23B9A  *    G$DB_DS$              23B9C       G$LOW_MEM$            23B9E       G$UHJIT$
       23BA0       G$MHJIT$              23BA2  *    G$DS1$                23BA4  *    G$DS2$
       23BA6  *    G$CP_DS$              23BA8  *    G$LAUTO_DS$           23BAA  *    G$LAUTO_DS2$
       23BAC  *    G$LAUTO_DS3$          23BAE       G$ISR1$               23BB0       G$ISR2$
       23BB2       G$ISR3$               23BB4       G$ISR4$               23BB6       G$ISR5$
       23BB8       G$ISR6$               23BBA       G$ISR7$               23BBC  *    G$DB_PROC$
       23BBE  *    G$CP_PROC$            23BC0  *    G$BAUTO_DS$           23BC2  *    G$DS3$
       23BC4  *    G$DS4$                23BC6  *    G$HAND_Q$             23BC8  *    G$LIB_ISR1$
       23BCA  *    G$LIB_ISR2$           23BCC  *    G$SEG$                23BCE  *    G$TSTACK$
       23BD0  *    G$SEG0007$            23BD2  *    G$MON_ENT_DATA$       23BD4  *    G$MON_ENT$
       23BD6  *    G$LPAR1$              23BD8  *    G$LPAR2$              23BDA  *    G$LPAR3$
       23BDC  *    G$LPAR4$              23BDE  *    G$LPAR5$              23BE0  *    G$LPAR6$
       23BE2  *    G$WINDOW1$            23BE4       G$BOBCAT$             23BE6       G$USRDS3$
       23BE8       G$USRDS4$             23BEA  *    G$SEG1400$            23BEC  *    G$SEG1500$
       23BEE       G$USRDS1$             23BF0       G$USRDS2$             23BF2  *    G$BPAR1$
       23BF4  *    G$BPAR2$              23BF6       G$UAUTO_DS$           23F54  * L  G_PATCHIH
..STIing

File Name = DELTA_FPRG
   File Type = FEP Run unit
   Product = ACCESS MODES
   Version = E05
   Time Stamp at Birth
      Time = 14:12
      Date = JUL 30 '97
   Marketing Identifier = SFS6503
   ** STI record created
