VERSION E05
          1  - FEPLINK  ;
          2  - G_COPYRIGHT.:E05TOU  ,;
          3  - GTD$MDC_HNDLR.:E05TOU  ,;
          4  - GHH$HARDWARE.:E05TOU   ;
          5  - OVER TND_MDC_HNDLR.:E05TGNS ;
          6  -      (SL=15,IPATCH=50,DPATCH=10, ;
          7  -       VERSION='E05', ;
          8  -       MAP(NAME,VALUE), ;
          9  -       SHARELIB(:SHARED_LCP6_SYSTEM.:E05TGN))
  * :SHARED_LCP6_SYSTEM.:E05TGN(Shared Library) associated.
        * * ALLOCATION SUMMARY * *
 PROTECTION          LOCATION       PAGES
 READ ONLY               1000           1
 DATA                   101D0           4
 PROCEDURE              20000           6
  * No linking errors.
  * Total program size =    3K.
  ***1 unsatisfied secondary entry reference(s)
  ***5 unsatisfied secondary data reference(s)
**********************            CP6 FEP LINK MAP  VERSION = E00              **********************
********************** RF    = TND_MDC_HNDLR                   ACN  = :E05TGNS **********************
********************** SEV   =     0                           SIZE =     3 K  **********************
********************** START = 20026                           BIAS = 101D0    **********************
********************** UTS   = 07/30/97  14:56:58.44  WED                      **********************
SHARED LIBRARY
:SHARED_LCP6_SYSTEM
<HEX_ADDRESS><CON_DEF><SOURCE><USED><MULT_DEF><DEFINITION_NAME>
    <CON_DEF>   <USED>    <MULT_DEF>                      <SOURCE>
YES:    =       <BLANK>       +          OBJECT FILE      <BLANK>
NO : <BLANK>      *        <BLANK>       SHARED LIB.         S
                                         ALT. SHARED LIB.    A
                                         PRIVATE LIB.        P
                                         LINKER SUPPLIED     L
                                         RUN FILE            R
                                         REMOVED             -
*********** PROTECTION TYPES ***********
            DATA   PROCEDURE   READ ONLY
            ----   ---------   ---------
HIGH:      1055B       20572        1037
LOW :      101D0       20000        1000
SIZE:        38B         573          38
******** CONTROL SECTIONS SORTED BY VALUE ********
   101D0 DATA      GTD$MDC_HNDLR                    430 (.1AE)
   1037E DATA      G_PATCHD                          13 (.D)
   20000 RODATA    <FEPLINK supplied data items>      8 (.8)
   20008 RODATA    G_COPYRIGHT                       26 (.1A)
   20022 PROC      G_COPYRIGHT                        0 (.0)
   20022 RODATA    GTD$MDC_HNDLR                      4 (.4)
   20026 PROC      GTD$MDC_HNDLR                   1097 (.449)
   20470 RODATA    GTD$MDC_HNDLR                      5 (.5)
   20476 PROC      GHH$HARDWARE                     199 (.C7)
   2053E PROC      G_PATCHI                          53 (.35)
    1002 DCB       M$COLTD                            0 (.0)
******** UNRESOLVED SECONDARY ENTRY REFERENCES ********
    SCREECH.GHH$HARDWARE
******** UNRESOLVED SECONDARY DATA REFERENCES ********
    G$TSTACKM$.GHH$HARDWARE             GHH_SCODE.GHH$HARDWARE
    GH_LEV_INHIBIT.GHH$HARDWARE         GH_LEV_SUS.GHH$HARDWARE
    G_DIS.GHH$HARDWARE
******** PRIMARY ENTRY DEFINITIONS SORTED BY NAME ********
       2048E       GHH$IOLD              20482       GHH$IO_IN             E0008    S  KHA$ADMIN
       E000B    S  KHA$DVCADM            E000E    S  KHA$ERRLOG            E0011    S  KHA$GET_CTX_PTR
       E0014    S  KHA$INIT              E0017    S  KHA$INIT_CHANTBL
       E001A    S  KHA$INIT_CONTROL      E001D    S  KHA$INIT_DONE         E0020    S  KHA$LINE_ACTIVE
       E0023    S  KHA$LINE_INACTIVE                                       E0026    S  KHA$SNDSTT
       E0029    S  KHA$TSTCNC            E002C    S  KHA$UPD_CHN           E002F    S  KHC$CLOCK
       E0032    S  KHC$DISPATCH          E0035    S  KHC$DLTTIME1          E0038    S  KHC$DLTTIME2
       E003B    S  KHC$DLTUTS            E003E    S  KHC$DLTXEQ1           E0041    S  KHC$DLTXEQ2
       E0044    S  KHC$TIME1             E0047    S  KHC$TIME2             E004A    S  KHC$UTS
       E004D    S  KHC$WAIT              E0050    S  KHC$XEQ1              E0053    S  KHC$XEQ2
       E0056    S  KHD$ERRLOG            E0059    S  KHD$ERRLOG_SETTERMID_CHN
       E005C    S  KHD$ERRLOG_SETTERMID_VDI                                E005F    S  KHD$ERR_IO
       E0062    S  KHD$ERR_IOLD          E0065    S  KHD$ERR_IOLD_OTPCCBCTR
       E0068    S  KHD$SCREECH           E006B    S  KHD$TRC               E006E    S  KHI$DISABLE
       E0071    S  KHI$DWNLODCCP         E0074    S  KHI$DWNLODLCT         E0077    S  KHI$ENABLE
       E007A    S  KHI$IOLD              E007D    S  KHI$IOLD_FNC          E0080    S  KHI$IO_INP
       E0083    S  KHI$IO_INPLCTBYT      E0086    S  KHI$IO_OTP
       E0089    S  KHI$IO_OTPLCTBYT      E008C    S  KHI$RLCCCPLCT         E008F    S  KHI$SLAVE
       E0092    S  KVB$GET               E0095    S  KVB$GET2N             E0098    S  KVB$GET2NSYS
       E009B    S  KVB$GETSYS            E009E    S  KVB$INT               E00A1    S  KVB$RLS
       E00A4    S  KVB$RLS2N             E00A7    S  KVB$RLS2NSYS          E00AA    S  KVB$RLSSYS
       E00AD    S  KVI$RE_DSPINP         E00B0    S  KVM$RCV               E00B3    S  KVM$SNDCQ
       E00B6    S  KVV$INT               E00B9    S  KVV$VDHINT            E00BC    S  KVV$VDI
       E00BF    S  KZT$3270INIT          E00C2    S  X6A@                  E00C5    S  X6A_AAALT
       E00C8    S  X6A_AALT              E00CB    S  X6A_AARET             E00CE    S  X6A_AAUNWIND
       E00D1    S  X6A_AAUTO             E00D4    S  X6A_ARET              E00D7    S  X6A_ASALT
       E00DA    S  X6A_ASRET             E00DD    S  X6A_ASTATIC           E00E0    S  X6A_ASUNWIND
       E00E3    S  X6A_AUNWIND           E00E6    S  X6A_AUTO_0            E00E9    S  X6A_AUTO_1
       E00EC    S  X6A_AUTO_2            E00EF    S  X6A_AUTO_3            E00F2    S  X6A_AUTO_N
       E00F5    S  X6A_FARET             E00F8    S  X6A_INTRET            E00FB    S  X6A_MAALT
       E00FE    S  X6A_MARET             E0101    S  X6A_MAUNWIND          E0104    S  X6A_MAUTO
       E0107    S  X6A_MERCS             E010A    S  X6A_MSALT             E010D    S  X6A_MSRET
       E0110    S  X6A_MSTATIC           E0113    S  X6A_MSUNWIND          E0116    S  X6A_STATIC_0
       E0119    S  X6A_STATIC_1          E011C    S  X6A_STATIC_2          E011F    S  X6A_STATIC_3
       E0122    S  X6A_STATIC_N          E0125    S  X6A_SUNWIND           E0128    S  X6A_TRTN
       E012B    S  X6B_BCM               E012E    S  X6B_BLR               E0131    S  X6C_ACM
       E0134    S  X6C_ACMZ              E0137    S  X6C_ALR               E013A    S  X6C_ALRZ
       E013D    S  X6C_MAT               E0140    S  X6C_SRCH              E0143    S  X6D_MID
******** PRIMARY ENTRY DEFINITIONS SORTED BY VALUE ********
       20482       GHH$IO_IN             2048E       GHH$IOLD              E0008    S  KHA$ADMIN
       E000B    S  KHA$DVCADM            E000E    S  KHA$ERRLOG            E0011    S  KHA$GET_CTX_PTR
       E0014    S  KHA$INIT              E0017    S  KHA$INIT_CHANTBL
       E001A    S  KHA$INIT_CONTROL      E001D    S  KHA$INIT_DONE         E0020    S  KHA$LINE_ACTIVE
       E0023    S  KHA$LINE_INACTIVE                                       E0026    S  KHA$SNDSTT
       E0029    S  KHA$TSTCNC            E002C    S  KHA$UPD_CHN           E002F    S  KHC$CLOCK
       E0032    S  KHC$DISPATCH          E0035    S  KHC$DLTTIME1          E0038    S  KHC$DLTTIME2
       E003B    S  KHC$DLTUTS            E003E    S  KHC$DLTXEQ1           E0041    S  KHC$DLTXEQ2
       E0044    S  KHC$TIME1             E0047    S  KHC$TIME2             E004A    S  KHC$UTS
       E004D    S  KHC$WAIT              E0050    S  KHC$XEQ1              E0053    S  KHC$XEQ2
       E0056    S  KHD$ERRLOG            E0059    S  KHD$ERRLOG_SETTERMID_CHN
       E005C    S  KHD$ERRLOG_SETTERMID_VDI                                E005F    S  KHD$ERR_IO
       E0062    S  KHD$ERR_IOLD          E0065    S  KHD$ERR_IOLD_OTPCCBCTR
       E0068    S  KHD$SCREECH           E006B    S  KHD$TRC               E006E    S  KHI$DISABLE
       E0071    S  KHI$DWNLODCCP         E0074    S  KHI$DWNLODLCT         E0077    S  KHI$ENABLE
       E007A    S  KHI$IOLD              E007D    S  KHI$IOLD_FNC          E0080    S  KHI$IO_INP
       E0083    S  KHI$IO_INPLCTBYT      E0086    S  KHI$IO_OTP
       E0089    S  KHI$IO_OTPLCTBYT      E008C    S  KHI$RLCCCPLCT         E008F    S  KHI$SLAVE
       E0092    S  KVB$GET               E0095    S  KVB$GET2N             E0098    S  KVB$GET2NSYS
       E009B    S  KVB$GETSYS            E009E    S  KVB$INT               E00A1    S  KVB$RLS
       E00A4    S  KVB$RLS2N             E00A7    S  KVB$RLS2NSYS          E00AA    S  KVB$RLSSYS
       E00AD    S  KVI$RE_DSPINP         E00B0    S  KVM$RCV               E00B3    S  KVM$SNDCQ
       E00B6    S  KVV$INT               E00B9    S  KVV$VDHINT            E00BC    S  KVV$VDI
       E00BF    S  KZT$3270INIT          E00C2    S  X6A@                  E00C5    S  X6A_AAALT
       E00C8    S  X6A_AALT              E00CB    S  X6A_AARET             E00CE    S  X6A_AAUNWIND
       E00D1    S  X6A_AAUTO             E00D4    S  X6A_ARET              E00D7    S  X6A_ASALT
       E00DA    S  X6A_ASRET             E00DD    S  X6A_ASTATIC           E00E0    S  X6A_ASUNWIND
       E00E3    S  X6A_AUNWIND           E00E6    S  X6A_AUTO_0            E00E9    S  X6A_AUTO_1
       E00EC    S  X6A_AUTO_2            E00EF    S  X6A_AUTO_3            E00F2    S  X6A_AUTO_N
       E00F5    S  X6A_FARET             E00F8    S  X6A_INTRET            E00FB    S  X6A_MAALT
       E00FE    S  X6A_MARET             E0101    S  X6A_MAUNWIND          E0104    S  X6A_MAUTO
       E0107    S  X6A_MERCS             E010A    S  X6A_MSALT             E010D    S  X6A_MSRET
       E0110    S  X6A_MSTATIC           E0113    S  X6A_MSUNWIND          E0116    S  X6A_STATIC_0
       E0119    S  X6A_STATIC_1          E011C    S  X6A_STATIC_2          E011F    S  X6A_STATIC_3
       E0122    S  X6A_STATIC_N          E0125    S  X6A_SUNWIND           E0128    S  X6A_TRTN
       E012B    S  X6B_BCM               E012E    S  X6B_BLR               E0131    S  X6C_ACM
       E0134    S  X6C_ACMZ              E0137    S  X6C_ALR               E013A    S  X6C_ALRZ
       E013D    S  X6C_MAT               E0140    S  X6C_SRCH              E0143    S  X6D_MID
******** PRIMARY DATA DEFINITIONS SORTED BY NAME ********
        1016    S  G$AUTO_DS$             1018    S  G$AUTO_T$             E0774    S  G$DS4$
       E0776    S  G$HAND_Q$             E074C    S  G$LOW_MEM$            E0750    S  G$MHJIT$
       20002    L  G$ROS$                10087    S  KHA_BUFSEG            1006A    S  KHA_READ
       10058    S  KHA_WRITE             1007C    S  KH_ADMIN$             10056    S  KH_BUF$
       10006    S  KH_CHNHI              10004    S  KH_CHNHI$             10007    S  KH_CHNLOW
       10002    S  KH_CHNLOW$            1000D    S  KH_CTLTBL$            1007F    S  KH_ERRSND
       10080    S  KH_FLDWRTS            1007E    S  KH_INHLVL             1000F    S  KH_NODE#
       10008    S  KH_PROFILE_           E2604    S  KH_RLCCCPLCT          1008C    S  KH_WLCLKENT$
       F5923    S  KN_SP_MSG             10000    S  KV$PTR$               1017A    S  KV$RCVSSN$
       10178    S  KV$RCVVDO$            F4462    S  KV_ACTCHRTBLNRM       10027    S  KV_B_POOL#
       1001B    S  KV_B_POOL$            E99D1    S  KV_CLK_CANCEL
       E837F    S  KV_CMPCOD_TO_ERR#                                       10010    S  KV_CQ_HNDSBR$
       F58BA    S  KV_FLD                100D0    S  KV_FPT_WRTMLT         F58AA    S  KV_GRPCHR_WRD
       F58C1    S  KV_LIN                10180    S  KV_MAXUFTSIZ          F44E2    S  KV_MVD
       F589A    S  KV_NONPSTCHR_WRD      1017F    S  KV_PSTERRCNT          10016    S  KV_RCVCQ$
       10174    S  KV_RCVSSN$            10176    S  KV_RCVVDO$            F4EDD    S  KV_SETCLK
       F4502    S  KV_SHRBFR_PRM1        F4507    S  KV_SHRBFR_PRM2        F450C    S  KV_SHRBFR_PRM3
       10018    S  KV_SNDCQ_QHDR$        EDCAC    S  KV_SND_CMPDSCSSN      EDCBB    S  KV_SND_CNC
       EDCDD    S  KV_SND_DAT            EDCF4    S  KV_SND_DSCSSN         EDD03    S  KV_SND_EVT_BRK
       EDD13    S  KV_SND_EVT_MNTATN                                       EDD23    S  KV_SND_MRK
       EDD43    S  KV_SND_PRM            EDD59    S  KV_SND_RQSDAT_GNR
       EDD77    S  KV_SND_RQSMRK_DLTRCVDAT
       EDD68    S  KV_SND_RQSMRK_DLTRCVRQS                                 EDD86    S  KV_SND_RQSSTT
       EDDA4    S  KV_SND_SCHLCLSSN      F452F    S  KV_SRD                1017D    S  KV_SSNCNT
       1017E    S  KV_SSNMAX             F45AE    S  KV_TYPAHDBFR          1017C    S  KV_TYPAHDBFRLMT
       E0164    S  KV_USR_DAT            E016C    S  KV_USR_ERS            E0173    S  KV_USR_EVT
       E0175    S  KV_USR_EXTINPTRN      E017B    S  KV_USR_GETOTPBFR      E0184    S  KV_USR_INPPRC
       E018D    S  KV_USR_PST            E0191    S  KV_USR_RQSDAT         E0197    S  KV_USR_SETATR
       E01A4    S  KV_VDH_CNC            E01BD    S  KV_VDH_DAT            E01D5    S  KV_VDH_DAT_CLS
       E01C5    S  KV_VDH_DAT_NRM_ACTCHR
       E01CD    S  KV_VDH_DAT_NRM_NO_ACTCHR
       E01DD    S  KV_VDH_DAT_TIMOUT
       E01E9    S  KV_VDH_DSC            E01F3    S  KV_VDH_GETBFR         E01FE    S  KV_VDH_GETPRM
       E0213    S  KV_VDH_INTINPOPR      E0219    S  KV_VDH_OTPLCL
       E0265    S  KV_VDH_PST_0_VRT      E0231    S  KV_VDH_PST_ABS
       E0249    S  KV_VDH_PST_ABS_VRT_NO_SCR
       E0289    S  KV_VDH_PST_BS_FRM
       E0269    S  KV_VDH_PST_CR         E026D    S  KV_VDH_PST_CR_VRT
       E028D    S  KV_VDH_PST_ENDFRM                                       E0235    S  KV_VDH_PST_HOM
       E0271    S  KV_VDH_PST_LF         E0275    S  KV_VDH_PST_LF_VRT
       E027D    S  KV_VDH_PST_NEWLIN
       E0281    S  KV_VDH_PST_NEWLIN_VRT
       E0285    S  KV_VDH_PST_SPCFRM
       E0261    S  KV_VDH_PST_SPC_VRT                                      E0239    S  KV_VDH_PST_SRD
       E0255    S  KV_VDH_PST_VRT        E024D    S  KV_VDH_PST_WHTSPC
       E0251    S  KV_VDH_PST_WHTSPC_CR                                    E0279    S  KV_VDH_PST_WRAP
       E0291    S  KV_VDH_RLSBFR         E029C    S  KV_VDH_SETPRM         F58DD    S  KV_VDP_VDO
       F2946    S  KV_X364                   A =  L  M$COLTD
******** PRIMARY DATA DEFINITIONS SORTED BY VALUE ********
           A =  L  M$COLTD                1016    S  G$AUTO_DS$             1018    S  G$AUTO_T$
       10000    S  KV$PTR$               10002    S  KH_CHNLOW$            10004    S  KH_CHNHI$
       10006    S  KH_CHNHI              10007    S  KH_CHNLOW             10008    S  KH_PROFILE_
       1000D    S  KH_CTLTBL$            1000F    S  KH_NODE#              10010    S  KV_CQ_HNDSBR$
       10016    S  KV_RCVCQ$             10018    S  KV_SNDCQ_QHDR$        1001B    S  KV_B_POOL$
       10027    S  KV_B_POOL#            10056    S  KH_BUF$               10058    S  KHA_WRITE
       1006A    S  KHA_READ              1007C    S  KH_ADMIN$             1007E    S  KH_INHLVL
       1007F    S  KH_ERRSND             10080    S  KH_FLDWRTS            10087    S  KHA_BUFSEG
       1008C    S  KH_WLCLKENT$          100D0    S  KV_FPT_WRTMLT         10174    S  KV_RCVSSN$
       10176    S  KV_RCVVDO$            10178    S  KV$RCVVDO$            1017A    S  KV$RCVSSN$
       1017C    S  KV_TYPAHDBFRLMT       1017D    S  KV_SSNCNT             1017E    S  KV_SSNMAX
       1017F    S  KV_PSTERRCNT          10180    S  KV_MAXUFTSIZ          20002    L  G$ROS$
       E0164    S  KV_USR_DAT            E016C    S  KV_USR_ERS            E0173    S  KV_USR_EVT
       E0175    S  KV_USR_EXTINPTRN      E017B    S  KV_USR_GETOTPBFR      E0184    S  KV_USR_INPPRC
       E018D    S  KV_USR_PST            E0191    S  KV_USR_RQSDAT         E0197    S  KV_USR_SETATR
       E01A4    S  KV_VDH_CNC            E01BD    S  KV_VDH_DAT
       E01C5    S  KV_VDH_DAT_NRM_ACTCHR
       E01CD    S  KV_VDH_DAT_NRM_NO_ACTCHR                                E01D5    S  KV_VDH_DAT_CLS
       E01DD    S  KV_VDH_DAT_TIMOUT
       E01E9    S  KV_VDH_DSC            E01F3    S  KV_VDH_GETBFR         E01FE    S  KV_VDH_GETPRM
       E0213    S  KV_VDH_INTINPOPR      E0219    S  KV_VDH_OTPLCL
       E0231    S  KV_VDH_PST_ABS        E0235    S  KV_VDH_PST_HOM        E0239    S  KV_VDH_PST_SRD
       E0249    S  KV_VDH_PST_ABS_VRT_NO_SCR
       E024D    S  KV_VDH_PST_WHTSPC
       E0251    S  KV_VDH_PST_WHTSPC_CR                                    E0255    S  KV_VDH_PST_VRT
       E0261    S  KV_VDH_PST_SPC_VRT
       E0265    S  KV_VDH_PST_0_VRT      E0269    S  KV_VDH_PST_CR
       E026D    S  KV_VDH_PST_CR_VRT                                       E0271    S  KV_VDH_PST_LF
       E0275    S  KV_VDH_PST_LF_VRT                                       E0279    S  KV_VDH_PST_WRAP
       E027D    S  KV_VDH_PST_NEWLIN
       E0281    S  KV_VDH_PST_NEWLIN_VRT
       E0285    S  KV_VDH_PST_SPCFRM
       E0289    S  KV_VDH_PST_BS_FRM
       E028D    S  KV_VDH_PST_ENDFRM                                       E0291    S  KV_VDH_RLSBFR
       E029C    S  KV_VDH_SETPRM         E074C    S  G$LOW_MEM$            E0750    S  G$MHJIT$
       E0774    S  G$DS4$                E0776    S  G$HAND_Q$             E2604    S  KH_RLCCCPLCT
       E837F    S  KV_CMPCOD_TO_ERR#
       E99D1    S  KV_CLK_CANCEL         EDCAC    S  KV_SND_CMPDSCSSN      EDCBB    S  KV_SND_CNC
       EDCDD    S  KV_SND_DAT            EDCF4    S  KV_SND_DSCSSN         EDD03    S  KV_SND_EVT_BRK
       EDD13    S  KV_SND_EVT_MNTATN                                       EDD23    S  KV_SND_MRK
       EDD43    S  KV_SND_PRM            EDD59    S  KV_SND_RQSDAT_GNR
       EDD68    S  KV_SND_RQSMRK_DLTRCVRQS
       EDD77    S  KV_SND_RQSMRK_DLTRCVDAT                                 EDD86    S  KV_SND_RQSSTT
       EDDA4    S  KV_SND_SCHLCLSSN      F2946    S  KV_X364
       F4462    S  KV_ACTCHRTBLNRM       F44E2    S  KV_MVD                F4502    S  KV_SHRBFR_PRM1
       F4507    S  KV_SHRBFR_PRM2        F450C    S  KV_SHRBFR_PRM3        F452F    S  KV_SRD
       F45AE    S  KV_TYPAHDBFR          F4EDD    S  KV_SETCLK
       F589A    S  KV_NONPSTCHR_WRD      F58AA    S  KV_GRPCHR_WRD         F58BA    S  KV_FLD
       F58C1    S  KV_LIN                F58DD    S  KV_VDP_VDO            F5923    S  KN_SP_MSG
..STIing

File Name = TND_MDC_HNDLR
   File Type = FEP Run unit
   Product = FEP COM
   Version = E05
   Time Stamp at Birth
      Time = 14:56
      Date = JUL 30 '97
   Marketing Identifier = SFC6501
   ** STI record created
